
user/_usertests:     file format elf64-littleriscv


Disassembly of section .text:

0000000000000000 <r_sp>:
       0:	1101                	addi	sp,sp,-32
       2:	ec22                	sd	s0,24(sp)
       4:	1000                	addi	s0,sp,32
       6:	878a                	mv	a5,sp
       8:	fef43423          	sd	a5,-24(s0)
       c:	fe843783          	ld	a5,-24(s0)
      10:	853e                	mv	a0,a5
      12:	6462                	ld	s0,24(sp)
      14:	6105                	addi	sp,sp,32
      16:	8082                	ret

0000000000000018 <copyin>:
      18:	715d                	addi	sp,sp,-80
      1a:	e486                	sd	ra,72(sp)
      1c:	e0a2                	sd	s0,64(sp)
      1e:	0880                	addi	s0,sp,80
      20:	faa43c23          	sd	a0,-72(s0)
      24:	4785                	li	a5,1
      26:	07fe                	slli	a5,a5,0x1f
      28:	fcf43423          	sd	a5,-56(s0)
      2c:	57fd                	li	a5,-1
      2e:	fcf43823          	sd	a5,-48(s0)
      32:	fe042623          	sw	zero,-20(s0)
      36:	a245                	j	1d6 <copyin+0x1be>
      38:	fec42783          	lw	a5,-20(s0)
      3c:	078e                	slli	a5,a5,0x3
      3e:	ff040713          	addi	a4,s0,-16
      42:	97ba                	add	a5,a5,a4
      44:	fd87b783          	ld	a5,-40(a5)
      48:	fef43023          	sd	a5,-32(s0)
      4c:	20100593          	li	a1,513
      50:	00008517          	auipc	a0,0x8
      54:	c2050513          	addi	a0,a0,-992 # 7c70 <longjmp_1+0x328>
      58:	00007097          	auipc	ra,0x7
      5c:	060080e7          	jalr	96(ra) # 70b8 <open>
      60:	87aa                	mv	a5,a0
      62:	fcf42e23          	sw	a5,-36(s0)
      66:	fdc42783          	lw	a5,-36(s0)
      6a:	2781                	sext.w	a5,a5
      6c:	0007df63          	bgez	a5,8a <copyin+0x72>
      70:	00008517          	auipc	a0,0x8
      74:	c0850513          	addi	a0,a0,-1016 # 7c78 <longjmp_1+0x330>
      78:	00007097          	auipc	ra,0x7
      7c:	52e080e7          	jalr	1326(ra) # 75a6 <printf>
      80:	4505                	li	a0,1
      82:	00007097          	auipc	ra,0x7
      86:	ff6080e7          	jalr	-10(ra) # 7078 <exit>
      8a:	fe043703          	ld	a4,-32(s0)
      8e:	fdc42783          	lw	a5,-36(s0)
      92:	6609                	lui	a2,0x2
      94:	85ba                	mv	a1,a4
      96:	853e                	mv	a0,a5
      98:	00007097          	auipc	ra,0x7
      9c:	000080e7          	jalr	ra # 7098 <write>
      a0:	87aa                	mv	a5,a0
      a2:	fcf42c23          	sw	a5,-40(s0)
      a6:	fd842783          	lw	a5,-40(s0)
      aa:	2781                	sext.w	a5,a5
      ac:	0207c463          	bltz	a5,d4 <copyin+0xbc>
      b0:	fd842783          	lw	a5,-40(s0)
      b4:	863e                	mv	a2,a5
      b6:	fe043583          	ld	a1,-32(s0)
      ba:	00008517          	auipc	a0,0x8
      be:	bd650513          	addi	a0,a0,-1066 # 7c90 <longjmp_1+0x348>
      c2:	00007097          	auipc	ra,0x7
      c6:	4e4080e7          	jalr	1252(ra) # 75a6 <printf>
      ca:	4505                	li	a0,1
      cc:	00007097          	auipc	ra,0x7
      d0:	fac080e7          	jalr	-84(ra) # 7078 <exit>
      d4:	fdc42783          	lw	a5,-36(s0)
      d8:	853e                	mv	a0,a5
      da:	00007097          	auipc	ra,0x7
      de:	fc6080e7          	jalr	-58(ra) # 70a0 <close>
      e2:	00008517          	auipc	a0,0x8
      e6:	b8e50513          	addi	a0,a0,-1138 # 7c70 <longjmp_1+0x328>
      ea:	00007097          	auipc	ra,0x7
      ee:	fde080e7          	jalr	-34(ra) # 70c8 <unlink>
      f2:	fe043783          	ld	a5,-32(s0)
      f6:	6609                	lui	a2,0x2
      f8:	85be                	mv	a1,a5
      fa:	4505                	li	a0,1
      fc:	00007097          	auipc	ra,0x7
     100:	f9c080e7          	jalr	-100(ra) # 7098 <write>
     104:	87aa                	mv	a5,a0
     106:	fcf42c23          	sw	a5,-40(s0)
     10a:	fd842783          	lw	a5,-40(s0)
     10e:	2781                	sext.w	a5,a5
     110:	02f05463          	blez	a5,138 <copyin+0x120>
     114:	fd842783          	lw	a5,-40(s0)
     118:	863e                	mv	a2,a5
     11a:	fe043583          	ld	a1,-32(s0)
     11e:	00008517          	auipc	a0,0x8
     122:	ba250513          	addi	a0,a0,-1118 # 7cc0 <longjmp_1+0x378>
     126:	00007097          	auipc	ra,0x7
     12a:	480080e7          	jalr	1152(ra) # 75a6 <printf>
     12e:	4505                	li	a0,1
     130:	00007097          	auipc	ra,0x7
     134:	f48080e7          	jalr	-184(ra) # 7078 <exit>
     138:	fc040793          	addi	a5,s0,-64
     13c:	853e                	mv	a0,a5
     13e:	00007097          	auipc	ra,0x7
     142:	f4a080e7          	jalr	-182(ra) # 7088 <pipe>
     146:	87aa                	mv	a5,a0
     148:	0007df63          	bgez	a5,166 <copyin+0x14e>
     14c:	00008517          	auipc	a0,0x8
     150:	ba450513          	addi	a0,a0,-1116 # 7cf0 <longjmp_1+0x3a8>
     154:	00007097          	auipc	ra,0x7
     158:	452080e7          	jalr	1106(ra) # 75a6 <printf>
     15c:	4505                	li	a0,1
     15e:	00007097          	auipc	ra,0x7
     162:	f1a080e7          	jalr	-230(ra) # 7078 <exit>
     166:	fc442783          	lw	a5,-60(s0)
     16a:	fe043703          	ld	a4,-32(s0)
     16e:	6609                	lui	a2,0x2
     170:	85ba                	mv	a1,a4
     172:	853e                	mv	a0,a5
     174:	00007097          	auipc	ra,0x7
     178:	f24080e7          	jalr	-220(ra) # 7098 <write>
     17c:	87aa                	mv	a5,a0
     17e:	fcf42c23          	sw	a5,-40(s0)
     182:	fd842783          	lw	a5,-40(s0)
     186:	2781                	sext.w	a5,a5
     188:	02f05463          	blez	a5,1b0 <copyin+0x198>
     18c:	fd842783          	lw	a5,-40(s0)
     190:	863e                	mv	a2,a5
     192:	fe043583          	ld	a1,-32(s0)
     196:	00008517          	auipc	a0,0x8
     19a:	b6a50513          	addi	a0,a0,-1174 # 7d00 <longjmp_1+0x3b8>
     19e:	00007097          	auipc	ra,0x7
     1a2:	408080e7          	jalr	1032(ra) # 75a6 <printf>
     1a6:	4505                	li	a0,1
     1a8:	00007097          	auipc	ra,0x7
     1ac:	ed0080e7          	jalr	-304(ra) # 7078 <exit>
     1b0:	fc042783          	lw	a5,-64(s0)
     1b4:	853e                	mv	a0,a5
     1b6:	00007097          	auipc	ra,0x7
     1ba:	eea080e7          	jalr	-278(ra) # 70a0 <close>
     1be:	fc442783          	lw	a5,-60(s0)
     1c2:	853e                	mv	a0,a5
     1c4:	00007097          	auipc	ra,0x7
     1c8:	edc080e7          	jalr	-292(ra) # 70a0 <close>
     1cc:	fec42783          	lw	a5,-20(s0)
     1d0:	2785                	addiw	a5,a5,1
     1d2:	fef42623          	sw	a5,-20(s0)
     1d6:	fec42783          	lw	a5,-20(s0)
     1da:	0007871b          	sext.w	a4,a5
     1de:	4785                	li	a5,1
     1e0:	e4e7dce3          	bge	a5,a4,38 <copyin+0x20>
     1e4:	0001                	nop
     1e6:	0001                	nop
     1e8:	60a6                	ld	ra,72(sp)
     1ea:	6406                	ld	s0,64(sp)
     1ec:	6161                	addi	sp,sp,80
     1ee:	8082                	ret

00000000000001f0 <copyout>:
     1f0:	715d                	addi	sp,sp,-80
     1f2:	e486                	sd	ra,72(sp)
     1f4:	e0a2                	sd	s0,64(sp)
     1f6:	0880                	addi	s0,sp,80
     1f8:	faa43c23          	sd	a0,-72(s0)
     1fc:	4785                	li	a5,1
     1fe:	07fe                	slli	a5,a5,0x1f
     200:	fcf43423          	sd	a5,-56(s0)
     204:	57fd                	li	a5,-1
     206:	fcf43823          	sd	a5,-48(s0)
     20a:	fe042623          	sw	zero,-20(s0)
     20e:	a279                	j	39c <copyout+0x1ac>
     210:	fec42783          	lw	a5,-20(s0)
     214:	078e                	slli	a5,a5,0x3
     216:	ff040713          	addi	a4,s0,-16
     21a:	97ba                	add	a5,a5,a4
     21c:	fd87b783          	ld	a5,-40(a5)
     220:	fef43023          	sd	a5,-32(s0)
     224:	4581                	li	a1,0
     226:	00008517          	auipc	a0,0x8
     22a:	b0a50513          	addi	a0,a0,-1270 # 7d30 <longjmp_1+0x3e8>
     22e:	00007097          	auipc	ra,0x7
     232:	e8a080e7          	jalr	-374(ra) # 70b8 <open>
     236:	87aa                	mv	a5,a0
     238:	fcf42e23          	sw	a5,-36(s0)
     23c:	fdc42783          	lw	a5,-36(s0)
     240:	2781                	sext.w	a5,a5
     242:	0007df63          	bgez	a5,260 <copyout+0x70>
     246:	00008517          	auipc	a0,0x8
     24a:	af250513          	addi	a0,a0,-1294 # 7d38 <longjmp_1+0x3f0>
     24e:	00007097          	auipc	ra,0x7
     252:	358080e7          	jalr	856(ra) # 75a6 <printf>
     256:	4505                	li	a0,1
     258:	00007097          	auipc	ra,0x7
     25c:	e20080e7          	jalr	-480(ra) # 7078 <exit>
     260:	fe043703          	ld	a4,-32(s0)
     264:	fdc42783          	lw	a5,-36(s0)
     268:	6609                	lui	a2,0x2
     26a:	85ba                	mv	a1,a4
     26c:	853e                	mv	a0,a5
     26e:	00007097          	auipc	ra,0x7
     272:	e22080e7          	jalr	-478(ra) # 7090 <read>
     276:	87aa                	mv	a5,a0
     278:	fcf42c23          	sw	a5,-40(s0)
     27c:	fd842783          	lw	a5,-40(s0)
     280:	2781                	sext.w	a5,a5
     282:	02f05463          	blez	a5,2aa <copyout+0xba>
     286:	fd842783          	lw	a5,-40(s0)
     28a:	863e                	mv	a2,a5
     28c:	fe043583          	ld	a1,-32(s0)
     290:	00008517          	auipc	a0,0x8
     294:	ac050513          	addi	a0,a0,-1344 # 7d50 <longjmp_1+0x408>
     298:	00007097          	auipc	ra,0x7
     29c:	30e080e7          	jalr	782(ra) # 75a6 <printf>
     2a0:	4505                	li	a0,1
     2a2:	00007097          	auipc	ra,0x7
     2a6:	dd6080e7          	jalr	-554(ra) # 7078 <exit>
     2aa:	fdc42783          	lw	a5,-36(s0)
     2ae:	853e                	mv	a0,a5
     2b0:	00007097          	auipc	ra,0x7
     2b4:	df0080e7          	jalr	-528(ra) # 70a0 <close>
     2b8:	fc040793          	addi	a5,s0,-64
     2bc:	853e                	mv	a0,a5
     2be:	00007097          	auipc	ra,0x7
     2c2:	dca080e7          	jalr	-566(ra) # 7088 <pipe>
     2c6:	87aa                	mv	a5,a0
     2c8:	0007df63          	bgez	a5,2e6 <copyout+0xf6>
     2cc:	00008517          	auipc	a0,0x8
     2d0:	a2450513          	addi	a0,a0,-1500 # 7cf0 <longjmp_1+0x3a8>
     2d4:	00007097          	auipc	ra,0x7
     2d8:	2d2080e7          	jalr	722(ra) # 75a6 <printf>
     2dc:	4505                	li	a0,1
     2de:	00007097          	auipc	ra,0x7
     2e2:	d9a080e7          	jalr	-614(ra) # 7078 <exit>
     2e6:	fc442783          	lw	a5,-60(s0)
     2ea:	4605                	li	a2,1
     2ec:	00008597          	auipc	a1,0x8
     2f0:	a9458593          	addi	a1,a1,-1388 # 7d80 <longjmp_1+0x438>
     2f4:	853e                	mv	a0,a5
     2f6:	00007097          	auipc	ra,0x7
     2fa:	da2080e7          	jalr	-606(ra) # 7098 <write>
     2fe:	87aa                	mv	a5,a0
     300:	fcf42c23          	sw	a5,-40(s0)
     304:	fd842783          	lw	a5,-40(s0)
     308:	0007871b          	sext.w	a4,a5
     30c:	4785                	li	a5,1
     30e:	00f70f63          	beq	a4,a5,32c <copyout+0x13c>
     312:	00008517          	auipc	a0,0x8
     316:	a7650513          	addi	a0,a0,-1418 # 7d88 <longjmp_1+0x440>
     31a:	00007097          	auipc	ra,0x7
     31e:	28c080e7          	jalr	652(ra) # 75a6 <printf>
     322:	4505                	li	a0,1
     324:	00007097          	auipc	ra,0x7
     328:	d54080e7          	jalr	-684(ra) # 7078 <exit>
     32c:	fc042783          	lw	a5,-64(s0)
     330:	fe043703          	ld	a4,-32(s0)
     334:	6609                	lui	a2,0x2
     336:	85ba                	mv	a1,a4
     338:	853e                	mv	a0,a5
     33a:	00007097          	auipc	ra,0x7
     33e:	d56080e7          	jalr	-682(ra) # 7090 <read>
     342:	87aa                	mv	a5,a0
     344:	fcf42c23          	sw	a5,-40(s0)
     348:	fd842783          	lw	a5,-40(s0)
     34c:	2781                	sext.w	a5,a5
     34e:	02f05463          	blez	a5,376 <copyout+0x186>
     352:	fd842783          	lw	a5,-40(s0)
     356:	863e                	mv	a2,a5
     358:	fe043583          	ld	a1,-32(s0)
     35c:	00008517          	auipc	a0,0x8
     360:	a4450513          	addi	a0,a0,-1468 # 7da0 <longjmp_1+0x458>
     364:	00007097          	auipc	ra,0x7
     368:	242080e7          	jalr	578(ra) # 75a6 <printf>
     36c:	4505                	li	a0,1
     36e:	00007097          	auipc	ra,0x7
     372:	d0a080e7          	jalr	-758(ra) # 7078 <exit>
     376:	fc042783          	lw	a5,-64(s0)
     37a:	853e                	mv	a0,a5
     37c:	00007097          	auipc	ra,0x7
     380:	d24080e7          	jalr	-732(ra) # 70a0 <close>
     384:	fc442783          	lw	a5,-60(s0)
     388:	853e                	mv	a0,a5
     38a:	00007097          	auipc	ra,0x7
     38e:	d16080e7          	jalr	-746(ra) # 70a0 <close>
     392:	fec42783          	lw	a5,-20(s0)
     396:	2785                	addiw	a5,a5,1
     398:	fef42623          	sw	a5,-20(s0)
     39c:	fec42783          	lw	a5,-20(s0)
     3a0:	0007871b          	sext.w	a4,a5
     3a4:	4785                	li	a5,1
     3a6:	e6e7d5e3          	bge	a5,a4,210 <copyout+0x20>
     3aa:	0001                	nop
     3ac:	0001                	nop
     3ae:	60a6                	ld	ra,72(sp)
     3b0:	6406                	ld	s0,64(sp)
     3b2:	6161                	addi	sp,sp,80
     3b4:	8082                	ret

00000000000003b6 <copyinstr1>:
     3b6:	715d                	addi	sp,sp,-80
     3b8:	e486                	sd	ra,72(sp)
     3ba:	e0a2                	sd	s0,64(sp)
     3bc:	0880                	addi	s0,sp,80
     3be:	faa43c23          	sd	a0,-72(s0)
     3c2:	4785                	li	a5,1
     3c4:	07fe                	slli	a5,a5,0x1f
     3c6:	fcf43423          	sd	a5,-56(s0)
     3ca:	57fd                	li	a5,-1
     3cc:	fcf43823          	sd	a5,-48(s0)
     3d0:	fe042623          	sw	zero,-20(s0)
     3d4:	a09d                	j	43a <copyinstr1+0x84>
     3d6:	fec42783          	lw	a5,-20(s0)
     3da:	078e                	slli	a5,a5,0x3
     3dc:	ff040713          	addi	a4,s0,-16
     3e0:	97ba                	add	a5,a5,a4
     3e2:	fd87b783          	ld	a5,-40(a5)
     3e6:	fef43023          	sd	a5,-32(s0)
     3ea:	fe043783          	ld	a5,-32(s0)
     3ee:	20100593          	li	a1,513
     3f2:	853e                	mv	a0,a5
     3f4:	00007097          	auipc	ra,0x7
     3f8:	cc4080e7          	jalr	-828(ra) # 70b8 <open>
     3fc:	87aa                	mv	a5,a0
     3fe:	fcf42e23          	sw	a5,-36(s0)
     402:	fdc42783          	lw	a5,-36(s0)
     406:	2781                	sext.w	a5,a5
     408:	0207c463          	bltz	a5,430 <copyinstr1+0x7a>
     40c:	fdc42783          	lw	a5,-36(s0)
     410:	863e                	mv	a2,a5
     412:	fe043583          	ld	a1,-32(s0)
     416:	00008517          	auipc	a0,0x8
     41a:	9ba50513          	addi	a0,a0,-1606 # 7dd0 <longjmp_1+0x488>
     41e:	00007097          	auipc	ra,0x7
     422:	188080e7          	jalr	392(ra) # 75a6 <printf>
     426:	4505                	li	a0,1
     428:	00007097          	auipc	ra,0x7
     42c:	c50080e7          	jalr	-944(ra) # 7078 <exit>
     430:	fec42783          	lw	a5,-20(s0)
     434:	2785                	addiw	a5,a5,1
     436:	fef42623          	sw	a5,-20(s0)
     43a:	fec42783          	lw	a5,-20(s0)
     43e:	0007871b          	sext.w	a4,a5
     442:	4785                	li	a5,1
     444:	f8e7d9e3          	bge	a5,a4,3d6 <copyinstr1+0x20>
     448:	0001                	nop
     44a:	0001                	nop
     44c:	60a6                	ld	ra,72(sp)
     44e:	6406                	ld	s0,64(sp)
     450:	6161                	addi	sp,sp,80
     452:	8082                	ret

0000000000000454 <copyinstr2>:
     454:	7151                	addi	sp,sp,-240
     456:	f586                	sd	ra,232(sp)
     458:	f1a2                	sd	s0,224(sp)
     45a:	1980                	addi	s0,sp,240
     45c:	f0a43c23          	sd	a0,-232(s0)
     460:	fe042623          	sw	zero,-20(s0)
     464:	a839                	j	482 <copyinstr2+0x2e>
     466:	fec42783          	lw	a5,-20(s0)
     46a:	ff040713          	addi	a4,s0,-16
     46e:	97ba                	add	a5,a5,a4
     470:	07800713          	li	a4,120
     474:	f6e78423          	sb	a4,-152(a5)
     478:	fec42783          	lw	a5,-20(s0)
     47c:	2785                	addiw	a5,a5,1
     47e:	fef42623          	sw	a5,-20(s0)
     482:	fec42783          	lw	a5,-20(s0)
     486:	0007871b          	sext.w	a4,a5
     48a:	07f00793          	li	a5,127
     48e:	fce7dce3          	bge	a5,a4,466 <copyinstr2+0x12>
     492:	fc040c23          	sb	zero,-40(s0)
     496:	f5840793          	addi	a5,s0,-168
     49a:	853e                	mv	a0,a5
     49c:	00007097          	auipc	ra,0x7
     4a0:	c2c080e7          	jalr	-980(ra) # 70c8 <unlink>
     4a4:	87aa                	mv	a5,a0
     4a6:	fef42223          	sw	a5,-28(s0)
     4aa:	fe442783          	lw	a5,-28(s0)
     4ae:	0007871b          	sext.w	a4,a5
     4b2:	57fd                	li	a5,-1
     4b4:	02f70563          	beq	a4,a5,4de <copyinstr2+0x8a>
     4b8:	fe442703          	lw	a4,-28(s0)
     4bc:	f5840793          	addi	a5,s0,-168
     4c0:	863a                	mv	a2,a4
     4c2:	85be                	mv	a1,a5
     4c4:	00008517          	auipc	a0,0x8
     4c8:	92c50513          	addi	a0,a0,-1748 # 7df0 <longjmp_1+0x4a8>
     4cc:	00007097          	auipc	ra,0x7
     4d0:	0da080e7          	jalr	218(ra) # 75a6 <printf>
     4d4:	4505                	li	a0,1
     4d6:	00007097          	auipc	ra,0x7
     4da:	ba2080e7          	jalr	-1118(ra) # 7078 <exit>
     4de:	f5840793          	addi	a5,s0,-168
     4e2:	20100593          	li	a1,513
     4e6:	853e                	mv	a0,a5
     4e8:	00007097          	auipc	ra,0x7
     4ec:	bd0080e7          	jalr	-1072(ra) # 70b8 <open>
     4f0:	87aa                	mv	a5,a0
     4f2:	fef42023          	sw	a5,-32(s0)
     4f6:	fe042783          	lw	a5,-32(s0)
     4fa:	0007871b          	sext.w	a4,a5
     4fe:	57fd                	li	a5,-1
     500:	02f70563          	beq	a4,a5,52a <copyinstr2+0xd6>
     504:	fe042703          	lw	a4,-32(s0)
     508:	f5840793          	addi	a5,s0,-168
     50c:	863a                	mv	a2,a4
     50e:	85be                	mv	a1,a5
     510:	00008517          	auipc	a0,0x8
     514:	90050513          	addi	a0,a0,-1792 # 7e10 <longjmp_1+0x4c8>
     518:	00007097          	auipc	ra,0x7
     51c:	08e080e7          	jalr	142(ra) # 75a6 <printf>
     520:	4505                	li	a0,1
     522:	00007097          	auipc	ra,0x7
     526:	b56080e7          	jalr	-1194(ra) # 7078 <exit>
     52a:	f5840713          	addi	a4,s0,-168
     52e:	f5840793          	addi	a5,s0,-168
     532:	85ba                	mv	a1,a4
     534:	853e                	mv	a0,a5
     536:	00007097          	auipc	ra,0x7
     53a:	ba2080e7          	jalr	-1118(ra) # 70d8 <link>
     53e:	87aa                	mv	a5,a0
     540:	fef42223          	sw	a5,-28(s0)
     544:	fe442783          	lw	a5,-28(s0)
     548:	0007871b          	sext.w	a4,a5
     54c:	57fd                	li	a5,-1
     54e:	02f70763          	beq	a4,a5,57c <copyinstr2+0x128>
     552:	fe442683          	lw	a3,-28(s0)
     556:	f5840713          	addi	a4,s0,-168
     55a:	f5840793          	addi	a5,s0,-168
     55e:	863a                	mv	a2,a4
     560:	85be                	mv	a1,a5
     562:	00008517          	auipc	a0,0x8
     566:	8ce50513          	addi	a0,a0,-1842 # 7e30 <longjmp_1+0x4e8>
     56a:	00007097          	auipc	ra,0x7
     56e:	03c080e7          	jalr	60(ra) # 75a6 <printf>
     572:	4505                	li	a0,1
     574:	00007097          	auipc	ra,0x7
     578:	b04080e7          	jalr	-1276(ra) # 7078 <exit>
     57c:	00008797          	auipc	a5,0x8
     580:	8dc78793          	addi	a5,a5,-1828 # 7e58 <longjmp_1+0x510>
     584:	f4f43423          	sd	a5,-184(s0)
     588:	f4043823          	sd	zero,-176(s0)
     58c:	f4840713          	addi	a4,s0,-184
     590:	f5840793          	addi	a5,s0,-168
     594:	85ba                	mv	a1,a4
     596:	853e                	mv	a0,a5
     598:	00007097          	auipc	ra,0x7
     59c:	b18080e7          	jalr	-1256(ra) # 70b0 <exec>
     5a0:	87aa                	mv	a5,a0
     5a2:	fef42223          	sw	a5,-28(s0)
     5a6:	fe442783          	lw	a5,-28(s0)
     5aa:	0007871b          	sext.w	a4,a5
     5ae:	57fd                	li	a5,-1
     5b0:	02f70563          	beq	a4,a5,5da <copyinstr2+0x186>
     5b4:	fe042703          	lw	a4,-32(s0)
     5b8:	f5840793          	addi	a5,s0,-168
     5bc:	863a                	mv	a2,a4
     5be:	85be                	mv	a1,a5
     5c0:	00008517          	auipc	a0,0x8
     5c4:	8a050513          	addi	a0,a0,-1888 # 7e60 <longjmp_1+0x518>
     5c8:	00007097          	auipc	ra,0x7
     5cc:	fde080e7          	jalr	-34(ra) # 75a6 <printf>
     5d0:	4505                	li	a0,1
     5d2:	00007097          	auipc	ra,0x7
     5d6:	aa6080e7          	jalr	-1370(ra) # 7078 <exit>
     5da:	00007097          	auipc	ra,0x7
     5de:	a96080e7          	jalr	-1386(ra) # 7070 <fork>
     5e2:	87aa                	mv	a5,a0
     5e4:	fcf42e23          	sw	a5,-36(s0)
     5e8:	fdc42783          	lw	a5,-36(s0)
     5ec:	2781                	sext.w	a5,a5
     5ee:	0007df63          	bgez	a5,60c <copyinstr2+0x1b8>
     5f2:	00008517          	auipc	a0,0x8
     5f6:	88e50513          	addi	a0,a0,-1906 # 7e80 <longjmp_1+0x538>
     5fa:	00007097          	auipc	ra,0x7
     5fe:	fac080e7          	jalr	-84(ra) # 75a6 <printf>
     602:	4505                	li	a0,1
     604:	00007097          	auipc	ra,0x7
     608:	a74080e7          	jalr	-1420(ra) # 7078 <exit>
     60c:	fdc42783          	lw	a5,-36(s0)
     610:	2781                	sext.w	a5,a5
     612:	efd5                	bnez	a5,6ce <copyinstr2+0x27a>
     614:	fe042423          	sw	zero,-24(s0)
     618:	a00d                	j	63a <copyinstr2+0x1e6>
     61a:	0000f717          	auipc	a4,0xf
     61e:	1ee70713          	addi	a4,a4,494 # f808 <big.0>
     622:	fe842783          	lw	a5,-24(s0)
     626:	97ba                	add	a5,a5,a4
     628:	07800713          	li	a4,120
     62c:	00e78023          	sb	a4,0(a5)
     630:	fe842783          	lw	a5,-24(s0)
     634:	2785                	addiw	a5,a5,1
     636:	fef42423          	sw	a5,-24(s0)
     63a:	fe842783          	lw	a5,-24(s0)
     63e:	0007871b          	sext.w	a4,a5
     642:	6785                	lui	a5,0x1
     644:	fcf74be3          	blt	a4,a5,61a <copyinstr2+0x1c6>
     648:	0000f717          	auipc	a4,0xf
     64c:	1c070713          	addi	a4,a4,448 # f808 <big.0>
     650:	6785                	lui	a5,0x1
     652:	97ba                	add	a5,a5,a4
     654:	00078023          	sb	zero,0(a5) # 1000 <truncate3+0x1aa>
     658:	00008797          	auipc	a5,0x8
     65c:	89878793          	addi	a5,a5,-1896 # 7ef0 <longjmp_1+0x5a8>
     660:	6390                	ld	a2,0(a5)
     662:	6794                	ld	a3,8(a5)
     664:	6b98                	ld	a4,16(a5)
     666:	6f9c                	ld	a5,24(a5)
     668:	f2c43023          	sd	a2,-224(s0)
     66c:	f2d43423          	sd	a3,-216(s0)
     670:	f2e43823          	sd	a4,-208(s0)
     674:	f2f43c23          	sd	a5,-200(s0)
     678:	f2040793          	addi	a5,s0,-224
     67c:	85be                	mv	a1,a5
     67e:	00008517          	auipc	a0,0x8
     682:	81250513          	addi	a0,a0,-2030 # 7e90 <longjmp_1+0x548>
     686:	00007097          	auipc	ra,0x7
     68a:	a2a080e7          	jalr	-1494(ra) # 70b0 <exec>
     68e:	87aa                	mv	a5,a0
     690:	fef42223          	sw	a5,-28(s0)
     694:	fe442783          	lw	a5,-28(s0)
     698:	0007871b          	sext.w	a4,a5
     69c:	57fd                	li	a5,-1
     69e:	02f70263          	beq	a4,a5,6c2 <copyinstr2+0x26e>
     6a2:	fe042783          	lw	a5,-32(s0)
     6a6:	85be                	mv	a1,a5
     6a8:	00007517          	auipc	a0,0x7
     6ac:	7f050513          	addi	a0,a0,2032 # 7e98 <longjmp_1+0x550>
     6b0:	00007097          	auipc	ra,0x7
     6b4:	ef6080e7          	jalr	-266(ra) # 75a6 <printf>
     6b8:	4505                	li	a0,1
     6ba:	00007097          	auipc	ra,0x7
     6be:	9be080e7          	jalr	-1602(ra) # 7078 <exit>
     6c2:	2eb00513          	li	a0,747
     6c6:	00007097          	auipc	ra,0x7
     6ca:	9b2080e7          	jalr	-1614(ra) # 7078 <exit>
     6ce:	f4042223          	sw	zero,-188(s0)
     6d2:	f4440793          	addi	a5,s0,-188
     6d6:	853e                	mv	a0,a5
     6d8:	00007097          	auipc	ra,0x7
     6dc:	9a8080e7          	jalr	-1624(ra) # 7080 <wait>
     6e0:	f4442783          	lw	a5,-188(s0)
     6e4:	873e                	mv	a4,a5
     6e6:	2eb00793          	li	a5,747
     6ea:	00f70f63          	beq	a4,a5,708 <copyinstr2+0x2b4>
     6ee:	00007517          	auipc	a0,0x7
     6f2:	7d250513          	addi	a0,a0,2002 # 7ec0 <longjmp_1+0x578>
     6f6:	00007097          	auipc	ra,0x7
     6fa:	eb0080e7          	jalr	-336(ra) # 75a6 <printf>
     6fe:	4505                	li	a0,1
     700:	00007097          	auipc	ra,0x7
     704:	978080e7          	jalr	-1672(ra) # 7078 <exit>
     708:	0001                	nop
     70a:	70ae                	ld	ra,232(sp)
     70c:	740e                	ld	s0,224(sp)
     70e:	616d                	addi	sp,sp,240
     710:	8082                	ret

0000000000000712 <copyinstr3>:
     712:	715d                	addi	sp,sp,-80
     714:	e486                	sd	ra,72(sp)
     716:	e0a2                	sd	s0,64(sp)
     718:	0880                	addi	s0,sp,80
     71a:	faa43c23          	sd	a0,-72(s0)
     71e:	6509                	lui	a0,0x2
     720:	00007097          	auipc	ra,0x7
     724:	9e0080e7          	jalr	-1568(ra) # 7100 <sbrk>
     728:	4501                	li	a0,0
     72a:	00007097          	auipc	ra,0x7
     72e:	9d6080e7          	jalr	-1578(ra) # 7100 <sbrk>
     732:	87aa                	mv	a5,a0
     734:	fef43423          	sd	a5,-24(s0)
     738:	fe843703          	ld	a4,-24(s0)
     73c:	6785                	lui	a5,0x1
     73e:	17fd                	addi	a5,a5,-1
     740:	8ff9                	and	a5,a5,a4
     742:	c39d                	beqz	a5,768 <copyinstr3+0x56>
     744:	fe843783          	ld	a5,-24(s0)
     748:	2781                	sext.w	a5,a5
     74a:	873e                	mv	a4,a5
     74c:	6785                	lui	a5,0x1
     74e:	17fd                	addi	a5,a5,-1
     750:	8ff9                	and	a5,a5,a4
     752:	2781                	sext.w	a5,a5
     754:	6705                	lui	a4,0x1
     756:	40f707bb          	subw	a5,a4,a5
     75a:	2781                	sext.w	a5,a5
     75c:	2781                	sext.w	a5,a5
     75e:	853e                	mv	a0,a5
     760:	00007097          	auipc	ra,0x7
     764:	9a0080e7          	jalr	-1632(ra) # 7100 <sbrk>
     768:	4501                	li	a0,0
     76a:	00007097          	auipc	ra,0x7
     76e:	996080e7          	jalr	-1642(ra) # 7100 <sbrk>
     772:	87aa                	mv	a5,a0
     774:	fef43423          	sd	a5,-24(s0)
     778:	fe843703          	ld	a4,-24(s0)
     77c:	6785                	lui	a5,0x1
     77e:	17fd                	addi	a5,a5,-1
     780:	8ff9                	and	a5,a5,a4
     782:	cf91                	beqz	a5,79e <copyinstr3+0x8c>
     784:	00007517          	auipc	a0,0x7
     788:	78c50513          	addi	a0,a0,1932 # 7f10 <longjmp_1+0x5c8>
     78c:	00007097          	auipc	ra,0x7
     790:	e1a080e7          	jalr	-486(ra) # 75a6 <printf>
     794:	4505                	li	a0,1
     796:	00007097          	auipc	ra,0x7
     79a:	8e2080e7          	jalr	-1822(ra) # 7078 <exit>
     79e:	fe843783          	ld	a5,-24(s0)
     7a2:	17fd                	addi	a5,a5,-1
     7a4:	fef43023          	sd	a5,-32(s0)
     7a8:	fe043783          	ld	a5,-32(s0)
     7ac:	07800713          	li	a4,120
     7b0:	00e78023          	sb	a4,0(a5) # 1000 <truncate3+0x1aa>
     7b4:	fe043503          	ld	a0,-32(s0)
     7b8:	00007097          	auipc	ra,0x7
     7bc:	910080e7          	jalr	-1776(ra) # 70c8 <unlink>
     7c0:	87aa                	mv	a5,a0
     7c2:	fcf42e23          	sw	a5,-36(s0)
     7c6:	fdc42783          	lw	a5,-36(s0)
     7ca:	0007871b          	sext.w	a4,a5
     7ce:	57fd                	li	a5,-1
     7d0:	02f70463          	beq	a4,a5,7f8 <copyinstr3+0xe6>
     7d4:	fdc42783          	lw	a5,-36(s0)
     7d8:	863e                	mv	a2,a5
     7da:	fe043583          	ld	a1,-32(s0)
     7de:	00007517          	auipc	a0,0x7
     7e2:	61250513          	addi	a0,a0,1554 # 7df0 <longjmp_1+0x4a8>
     7e6:	00007097          	auipc	ra,0x7
     7ea:	dc0080e7          	jalr	-576(ra) # 75a6 <printf>
     7ee:	4505                	li	a0,1
     7f0:	00007097          	auipc	ra,0x7
     7f4:	888080e7          	jalr	-1912(ra) # 7078 <exit>
     7f8:	20100593          	li	a1,513
     7fc:	fe043503          	ld	a0,-32(s0)
     800:	00007097          	auipc	ra,0x7
     804:	8b8080e7          	jalr	-1864(ra) # 70b8 <open>
     808:	87aa                	mv	a5,a0
     80a:	fcf42c23          	sw	a5,-40(s0)
     80e:	fd842783          	lw	a5,-40(s0)
     812:	0007871b          	sext.w	a4,a5
     816:	57fd                	li	a5,-1
     818:	02f70463          	beq	a4,a5,840 <copyinstr3+0x12e>
     81c:	fd842783          	lw	a5,-40(s0)
     820:	863e                	mv	a2,a5
     822:	fe043583          	ld	a1,-32(s0)
     826:	00007517          	auipc	a0,0x7
     82a:	5ea50513          	addi	a0,a0,1514 # 7e10 <longjmp_1+0x4c8>
     82e:	00007097          	auipc	ra,0x7
     832:	d78080e7          	jalr	-648(ra) # 75a6 <printf>
     836:	4505                	li	a0,1
     838:	00007097          	auipc	ra,0x7
     83c:	840080e7          	jalr	-1984(ra) # 7078 <exit>
     840:	fe043583          	ld	a1,-32(s0)
     844:	fe043503          	ld	a0,-32(s0)
     848:	00007097          	auipc	ra,0x7
     84c:	890080e7          	jalr	-1904(ra) # 70d8 <link>
     850:	87aa                	mv	a5,a0
     852:	fcf42e23          	sw	a5,-36(s0)
     856:	fdc42783          	lw	a5,-36(s0)
     85a:	0007871b          	sext.w	a4,a5
     85e:	57fd                	li	a5,-1
     860:	02f70663          	beq	a4,a5,88c <copyinstr3+0x17a>
     864:	fdc42783          	lw	a5,-36(s0)
     868:	86be                	mv	a3,a5
     86a:	fe043603          	ld	a2,-32(s0)
     86e:	fe043583          	ld	a1,-32(s0)
     872:	00007517          	auipc	a0,0x7
     876:	5be50513          	addi	a0,a0,1470 # 7e30 <longjmp_1+0x4e8>
     87a:	00007097          	auipc	ra,0x7
     87e:	d2c080e7          	jalr	-724(ra) # 75a6 <printf>
     882:	4505                	li	a0,1
     884:	00006097          	auipc	ra,0x6
     888:	7f4080e7          	jalr	2036(ra) # 7078 <exit>
     88c:	00007797          	auipc	a5,0x7
     890:	5cc78793          	addi	a5,a5,1484 # 7e58 <longjmp_1+0x510>
     894:	fcf43423          	sd	a5,-56(s0)
     898:	fc043823          	sd	zero,-48(s0)
     89c:	fc840793          	addi	a5,s0,-56
     8a0:	85be                	mv	a1,a5
     8a2:	fe043503          	ld	a0,-32(s0)
     8a6:	00007097          	auipc	ra,0x7
     8aa:	80a080e7          	jalr	-2038(ra) # 70b0 <exec>
     8ae:	87aa                	mv	a5,a0
     8b0:	fcf42e23          	sw	a5,-36(s0)
     8b4:	fdc42783          	lw	a5,-36(s0)
     8b8:	0007871b          	sext.w	a4,a5
     8bc:	57fd                	li	a5,-1
     8be:	02f70463          	beq	a4,a5,8e6 <copyinstr3+0x1d4>
     8c2:	fd842783          	lw	a5,-40(s0)
     8c6:	863e                	mv	a2,a5
     8c8:	fe043583          	ld	a1,-32(s0)
     8cc:	00007517          	auipc	a0,0x7
     8d0:	59450513          	addi	a0,a0,1428 # 7e60 <longjmp_1+0x518>
     8d4:	00007097          	auipc	ra,0x7
     8d8:	cd2080e7          	jalr	-814(ra) # 75a6 <printf>
     8dc:	4505                	li	a0,1
     8de:	00006097          	auipc	ra,0x6
     8e2:	79a080e7          	jalr	1946(ra) # 7078 <exit>
     8e6:	0001                	nop
     8e8:	60a6                	ld	ra,72(sp)
     8ea:	6406                	ld	s0,64(sp)
     8ec:	6161                	addi	sp,sp,80
     8ee:	8082                	ret

00000000000008f0 <rwsbrk>:
     8f0:	1101                	addi	sp,sp,-32
     8f2:	ec06                	sd	ra,24(sp)
     8f4:	e822                	sd	s0,16(sp)
     8f6:	1000                	addi	s0,sp,32
     8f8:	6509                	lui	a0,0x2
     8fa:	00007097          	auipc	ra,0x7
     8fe:	806080e7          	jalr	-2042(ra) # 7100 <sbrk>
     902:	87aa                	mv	a5,a0
     904:	fef43423          	sd	a5,-24(s0)
     908:	fe843703          	ld	a4,-24(s0)
     90c:	57fd                	li	a5,-1
     90e:	00f71f63          	bne	a4,a5,92c <rwsbrk+0x3c>
     912:	00007517          	auipc	a0,0x7
     916:	60650513          	addi	a0,a0,1542 # 7f18 <longjmp_1+0x5d0>
     91a:	00007097          	auipc	ra,0x7
     91e:	c8c080e7          	jalr	-884(ra) # 75a6 <printf>
     922:	4505                	li	a0,1
     924:	00006097          	auipc	ra,0x6
     928:	754080e7          	jalr	1876(ra) # 7078 <exit>
     92c:	7579                	lui	a0,0xffffe
     92e:	00006097          	auipc	ra,0x6
     932:	7d2080e7          	jalr	2002(ra) # 7100 <sbrk>
     936:	872a                	mv	a4,a0
     938:	57fd                	li	a5,-1
     93a:	00f71f63          	bne	a4,a5,958 <rwsbrk+0x68>
     93e:	00007517          	auipc	a0,0x7
     942:	5f250513          	addi	a0,a0,1522 # 7f30 <longjmp_1+0x5e8>
     946:	00007097          	auipc	ra,0x7
     94a:	c60080e7          	jalr	-928(ra) # 75a6 <printf>
     94e:	4505                	li	a0,1
     950:	00006097          	auipc	ra,0x6
     954:	728080e7          	jalr	1832(ra) # 7078 <exit>
     958:	20100593          	li	a1,513
     95c:	00007517          	auipc	a0,0x7
     960:	06c50513          	addi	a0,a0,108 # 79c8 <longjmp_1+0x80>
     964:	00006097          	auipc	ra,0x6
     968:	754080e7          	jalr	1876(ra) # 70b8 <open>
     96c:	87aa                	mv	a5,a0
     96e:	fef42223          	sw	a5,-28(s0)
     972:	fe442783          	lw	a5,-28(s0)
     976:	2781                	sext.w	a5,a5
     978:	0007df63          	bgez	a5,996 <rwsbrk+0xa6>
     97c:	00007517          	auipc	a0,0x7
     980:	5d450513          	addi	a0,a0,1492 # 7f50 <longjmp_1+0x608>
     984:	00007097          	auipc	ra,0x7
     988:	c22080e7          	jalr	-990(ra) # 75a6 <printf>
     98c:	4505                	li	a0,1
     98e:	00006097          	auipc	ra,0x6
     992:	6ea080e7          	jalr	1770(ra) # 7078 <exit>
     996:	fe843703          	ld	a4,-24(s0)
     99a:	6785                	lui	a5,0x1
     99c:	97ba                	add	a5,a5,a4
     99e:	873e                	mv	a4,a5
     9a0:	fe442783          	lw	a5,-28(s0)
     9a4:	40000613          	li	a2,1024
     9a8:	85ba                	mv	a1,a4
     9aa:	853e                	mv	a0,a5
     9ac:	00006097          	auipc	ra,0x6
     9b0:	6ec080e7          	jalr	1772(ra) # 7098 <write>
     9b4:	87aa                	mv	a5,a0
     9b6:	fef42023          	sw	a5,-32(s0)
     9ba:	fe042783          	lw	a5,-32(s0)
     9be:	2781                	sext.w	a5,a5
     9c0:	0207c763          	bltz	a5,9ee <rwsbrk+0xfe>
     9c4:	fe843703          	ld	a4,-24(s0)
     9c8:	6785                	lui	a5,0x1
     9ca:	97ba                	add	a5,a5,a4
     9cc:	fe042703          	lw	a4,-32(s0)
     9d0:	863a                	mv	a2,a4
     9d2:	85be                	mv	a1,a5
     9d4:	00007517          	auipc	a0,0x7
     9d8:	59450513          	addi	a0,a0,1428 # 7f68 <longjmp_1+0x620>
     9dc:	00007097          	auipc	ra,0x7
     9e0:	bca080e7          	jalr	-1078(ra) # 75a6 <printf>
     9e4:	4505                	li	a0,1
     9e6:	00006097          	auipc	ra,0x6
     9ea:	692080e7          	jalr	1682(ra) # 7078 <exit>
     9ee:	fe442783          	lw	a5,-28(s0)
     9f2:	853e                	mv	a0,a5
     9f4:	00006097          	auipc	ra,0x6
     9f8:	6ac080e7          	jalr	1708(ra) # 70a0 <close>
     9fc:	00007517          	auipc	a0,0x7
     a00:	fcc50513          	addi	a0,a0,-52 # 79c8 <longjmp_1+0x80>
     a04:	00006097          	auipc	ra,0x6
     a08:	6c4080e7          	jalr	1732(ra) # 70c8 <unlink>
     a0c:	4581                	li	a1,0
     a0e:	00007517          	auipc	a0,0x7
     a12:	32250513          	addi	a0,a0,802 # 7d30 <longjmp_1+0x3e8>
     a16:	00006097          	auipc	ra,0x6
     a1a:	6a2080e7          	jalr	1698(ra) # 70b8 <open>
     a1e:	87aa                	mv	a5,a0
     a20:	fef42223          	sw	a5,-28(s0)
     a24:	fe442783          	lw	a5,-28(s0)
     a28:	2781                	sext.w	a5,a5
     a2a:	0007df63          	bgez	a5,a48 <rwsbrk+0x158>
     a2e:	00007517          	auipc	a0,0x7
     a32:	52250513          	addi	a0,a0,1314 # 7f50 <longjmp_1+0x608>
     a36:	00007097          	auipc	ra,0x7
     a3a:	b70080e7          	jalr	-1168(ra) # 75a6 <printf>
     a3e:	4505                	li	a0,1
     a40:	00006097          	auipc	ra,0x6
     a44:	638080e7          	jalr	1592(ra) # 7078 <exit>
     a48:	fe843703          	ld	a4,-24(s0)
     a4c:	6785                	lui	a5,0x1
     a4e:	97ba                	add	a5,a5,a4
     a50:	873e                	mv	a4,a5
     a52:	fe442783          	lw	a5,-28(s0)
     a56:	4629                	li	a2,10
     a58:	85ba                	mv	a1,a4
     a5a:	853e                	mv	a0,a5
     a5c:	00006097          	auipc	ra,0x6
     a60:	634080e7          	jalr	1588(ra) # 7090 <read>
     a64:	87aa                	mv	a5,a0
     a66:	fef42023          	sw	a5,-32(s0)
     a6a:	fe042783          	lw	a5,-32(s0)
     a6e:	2781                	sext.w	a5,a5
     a70:	0207c763          	bltz	a5,a9e <rwsbrk+0x1ae>
     a74:	fe843703          	ld	a4,-24(s0)
     a78:	6785                	lui	a5,0x1
     a7a:	97ba                	add	a5,a5,a4
     a7c:	fe042703          	lw	a4,-32(s0)
     a80:	863a                	mv	a2,a4
     a82:	85be                	mv	a1,a5
     a84:	00007517          	auipc	a0,0x7
     a88:	51450513          	addi	a0,a0,1300 # 7f98 <longjmp_1+0x650>
     a8c:	00007097          	auipc	ra,0x7
     a90:	b1a080e7          	jalr	-1254(ra) # 75a6 <printf>
     a94:	4505                	li	a0,1
     a96:	00006097          	auipc	ra,0x6
     a9a:	5e2080e7          	jalr	1506(ra) # 7078 <exit>
     a9e:	fe442783          	lw	a5,-28(s0)
     aa2:	853e                	mv	a0,a5
     aa4:	00006097          	auipc	ra,0x6
     aa8:	5fc080e7          	jalr	1532(ra) # 70a0 <close>
     aac:	4501                	li	a0,0
     aae:	00006097          	auipc	ra,0x6
     ab2:	5ca080e7          	jalr	1482(ra) # 7078 <exit>

0000000000000ab6 <truncate1>:
     ab6:	715d                	addi	sp,sp,-80
     ab8:	e486                	sd	ra,72(sp)
     aba:	e0a2                	sd	s0,64(sp)
     abc:	0880                	addi	s0,sp,80
     abe:	faa43c23          	sd	a0,-72(s0)
     ac2:	00007517          	auipc	a0,0x7
     ac6:	4fe50513          	addi	a0,a0,1278 # 7fc0 <longjmp_1+0x678>
     aca:	00006097          	auipc	ra,0x6
     ace:	5fe080e7          	jalr	1534(ra) # 70c8 <unlink>
     ad2:	60100593          	li	a1,1537
     ad6:	00007517          	auipc	a0,0x7
     ada:	4ea50513          	addi	a0,a0,1258 # 7fc0 <longjmp_1+0x678>
     ade:	00006097          	auipc	ra,0x6
     ae2:	5da080e7          	jalr	1498(ra) # 70b8 <open>
     ae6:	87aa                	mv	a5,a0
     ae8:	fef42623          	sw	a5,-20(s0)
     aec:	fec42783          	lw	a5,-20(s0)
     af0:	4611                	li	a2,4
     af2:	00007597          	auipc	a1,0x7
     af6:	4de58593          	addi	a1,a1,1246 # 7fd0 <longjmp_1+0x688>
     afa:	853e                	mv	a0,a5
     afc:	00006097          	auipc	ra,0x6
     b00:	59c080e7          	jalr	1436(ra) # 7098 <write>
     b04:	fec42783          	lw	a5,-20(s0)
     b08:	853e                	mv	a0,a5
     b0a:	00006097          	auipc	ra,0x6
     b0e:	596080e7          	jalr	1430(ra) # 70a0 <close>
     b12:	4581                	li	a1,0
     b14:	00007517          	auipc	a0,0x7
     b18:	4ac50513          	addi	a0,a0,1196 # 7fc0 <longjmp_1+0x678>
     b1c:	00006097          	auipc	ra,0x6
     b20:	59c080e7          	jalr	1436(ra) # 70b8 <open>
     b24:	87aa                	mv	a5,a0
     b26:	fef42423          	sw	a5,-24(s0)
     b2a:	fc040713          	addi	a4,s0,-64
     b2e:	fe842783          	lw	a5,-24(s0)
     b32:	02000613          	li	a2,32
     b36:	85ba                	mv	a1,a4
     b38:	853e                	mv	a0,a5
     b3a:	00006097          	auipc	ra,0x6
     b3e:	556080e7          	jalr	1366(ra) # 7090 <read>
     b42:	87aa                	mv	a5,a0
     b44:	fef42223          	sw	a5,-28(s0)
     b48:	fe442783          	lw	a5,-28(s0)
     b4c:	0007871b          	sext.w	a4,a5
     b50:	4791                	li	a5,4
     b52:	02f70463          	beq	a4,a5,b7a <truncate1+0xc4>
     b56:	fe442783          	lw	a5,-28(s0)
     b5a:	863e                	mv	a2,a5
     b5c:	fb843583          	ld	a1,-72(s0)
     b60:	00007517          	auipc	a0,0x7
     b64:	47850513          	addi	a0,a0,1144 # 7fd8 <longjmp_1+0x690>
     b68:	00007097          	auipc	ra,0x7
     b6c:	a3e080e7          	jalr	-1474(ra) # 75a6 <printf>
     b70:	4505                	li	a0,1
     b72:	00006097          	auipc	ra,0x6
     b76:	506080e7          	jalr	1286(ra) # 7078 <exit>
     b7a:	40100593          	li	a1,1025
     b7e:	00007517          	auipc	a0,0x7
     b82:	44250513          	addi	a0,a0,1090 # 7fc0 <longjmp_1+0x678>
     b86:	00006097          	auipc	ra,0x6
     b8a:	532080e7          	jalr	1330(ra) # 70b8 <open>
     b8e:	87aa                	mv	a5,a0
     b90:	fef42623          	sw	a5,-20(s0)
     b94:	4581                	li	a1,0
     b96:	00007517          	auipc	a0,0x7
     b9a:	42a50513          	addi	a0,a0,1066 # 7fc0 <longjmp_1+0x678>
     b9e:	00006097          	auipc	ra,0x6
     ba2:	51a080e7          	jalr	1306(ra) # 70b8 <open>
     ba6:	87aa                	mv	a5,a0
     ba8:	fef42023          	sw	a5,-32(s0)
     bac:	fc040713          	addi	a4,s0,-64
     bb0:	fe042783          	lw	a5,-32(s0)
     bb4:	02000613          	li	a2,32
     bb8:	85ba                	mv	a1,a4
     bba:	853e                	mv	a0,a5
     bbc:	00006097          	auipc	ra,0x6
     bc0:	4d4080e7          	jalr	1236(ra) # 7090 <read>
     bc4:	87aa                	mv	a5,a0
     bc6:	fef42223          	sw	a5,-28(s0)
     bca:	fe442783          	lw	a5,-28(s0)
     bce:	2781                	sext.w	a5,a5
     bd0:	cf95                	beqz	a5,c0c <truncate1+0x156>
     bd2:	fe042783          	lw	a5,-32(s0)
     bd6:	85be                	mv	a1,a5
     bd8:	00007517          	auipc	a0,0x7
     bdc:	42050513          	addi	a0,a0,1056 # 7ff8 <longjmp_1+0x6b0>
     be0:	00007097          	auipc	ra,0x7
     be4:	9c6080e7          	jalr	-1594(ra) # 75a6 <printf>
     be8:	fe442783          	lw	a5,-28(s0)
     bec:	863e                	mv	a2,a5
     bee:	fb843583          	ld	a1,-72(s0)
     bf2:	00007517          	auipc	a0,0x7
     bf6:	41650513          	addi	a0,a0,1046 # 8008 <longjmp_1+0x6c0>
     bfa:	00007097          	auipc	ra,0x7
     bfe:	9ac080e7          	jalr	-1620(ra) # 75a6 <printf>
     c02:	4505                	li	a0,1
     c04:	00006097          	auipc	ra,0x6
     c08:	474080e7          	jalr	1140(ra) # 7078 <exit>
     c0c:	fc040713          	addi	a4,s0,-64
     c10:	fe842783          	lw	a5,-24(s0)
     c14:	02000613          	li	a2,32
     c18:	85ba                	mv	a1,a4
     c1a:	853e                	mv	a0,a5
     c1c:	00006097          	auipc	ra,0x6
     c20:	474080e7          	jalr	1140(ra) # 7090 <read>
     c24:	87aa                	mv	a5,a0
     c26:	fef42223          	sw	a5,-28(s0)
     c2a:	fe442783          	lw	a5,-28(s0)
     c2e:	2781                	sext.w	a5,a5
     c30:	cf95                	beqz	a5,c6c <truncate1+0x1b6>
     c32:	fe842783          	lw	a5,-24(s0)
     c36:	85be                	mv	a1,a5
     c38:	00007517          	auipc	a0,0x7
     c3c:	3f050513          	addi	a0,a0,1008 # 8028 <longjmp_1+0x6e0>
     c40:	00007097          	auipc	ra,0x7
     c44:	966080e7          	jalr	-1690(ra) # 75a6 <printf>
     c48:	fe442783          	lw	a5,-28(s0)
     c4c:	863e                	mv	a2,a5
     c4e:	fb843583          	ld	a1,-72(s0)
     c52:	00007517          	auipc	a0,0x7
     c56:	3b650513          	addi	a0,a0,950 # 8008 <longjmp_1+0x6c0>
     c5a:	00007097          	auipc	ra,0x7
     c5e:	94c080e7          	jalr	-1716(ra) # 75a6 <printf>
     c62:	4505                	li	a0,1
     c64:	00006097          	auipc	ra,0x6
     c68:	414080e7          	jalr	1044(ra) # 7078 <exit>
     c6c:	fec42783          	lw	a5,-20(s0)
     c70:	4619                	li	a2,6
     c72:	00007597          	auipc	a1,0x7
     c76:	3c658593          	addi	a1,a1,966 # 8038 <longjmp_1+0x6f0>
     c7a:	853e                	mv	a0,a5
     c7c:	00006097          	auipc	ra,0x6
     c80:	41c080e7          	jalr	1052(ra) # 7098 <write>
     c84:	fc040713          	addi	a4,s0,-64
     c88:	fe042783          	lw	a5,-32(s0)
     c8c:	02000613          	li	a2,32
     c90:	85ba                	mv	a1,a4
     c92:	853e                	mv	a0,a5
     c94:	00006097          	auipc	ra,0x6
     c98:	3fc080e7          	jalr	1020(ra) # 7090 <read>
     c9c:	87aa                	mv	a5,a0
     c9e:	fef42223          	sw	a5,-28(s0)
     ca2:	fe442783          	lw	a5,-28(s0)
     ca6:	0007871b          	sext.w	a4,a5
     caa:	4799                	li	a5,6
     cac:	02f70463          	beq	a4,a5,cd4 <truncate1+0x21e>
     cb0:	fe442783          	lw	a5,-28(s0)
     cb4:	863e                	mv	a2,a5
     cb6:	fb843583          	ld	a1,-72(s0)
     cba:	00007517          	auipc	a0,0x7
     cbe:	38650513          	addi	a0,a0,902 # 8040 <longjmp_1+0x6f8>
     cc2:	00007097          	auipc	ra,0x7
     cc6:	8e4080e7          	jalr	-1820(ra) # 75a6 <printf>
     cca:	4505                	li	a0,1
     ccc:	00006097          	auipc	ra,0x6
     cd0:	3ac080e7          	jalr	940(ra) # 7078 <exit>
     cd4:	fc040713          	addi	a4,s0,-64
     cd8:	fe842783          	lw	a5,-24(s0)
     cdc:	02000613          	li	a2,32
     ce0:	85ba                	mv	a1,a4
     ce2:	853e                	mv	a0,a5
     ce4:	00006097          	auipc	ra,0x6
     ce8:	3ac080e7          	jalr	940(ra) # 7090 <read>
     cec:	87aa                	mv	a5,a0
     cee:	fef42223          	sw	a5,-28(s0)
     cf2:	fe442783          	lw	a5,-28(s0)
     cf6:	0007871b          	sext.w	a4,a5
     cfa:	4789                	li	a5,2
     cfc:	02f70463          	beq	a4,a5,d24 <truncate1+0x26e>
     d00:	fe442783          	lw	a5,-28(s0)
     d04:	863e                	mv	a2,a5
     d06:	fb843583          	ld	a1,-72(s0)
     d0a:	00007517          	auipc	a0,0x7
     d0e:	35650513          	addi	a0,a0,854 # 8060 <longjmp_1+0x718>
     d12:	00007097          	auipc	ra,0x7
     d16:	894080e7          	jalr	-1900(ra) # 75a6 <printf>
     d1a:	4505                	li	a0,1
     d1c:	00006097          	auipc	ra,0x6
     d20:	35c080e7          	jalr	860(ra) # 7078 <exit>
     d24:	00007517          	auipc	a0,0x7
     d28:	29c50513          	addi	a0,a0,668 # 7fc0 <longjmp_1+0x678>
     d2c:	00006097          	auipc	ra,0x6
     d30:	39c080e7          	jalr	924(ra) # 70c8 <unlink>
     d34:	fec42783          	lw	a5,-20(s0)
     d38:	853e                	mv	a0,a5
     d3a:	00006097          	auipc	ra,0x6
     d3e:	366080e7          	jalr	870(ra) # 70a0 <close>
     d42:	fe842783          	lw	a5,-24(s0)
     d46:	853e                	mv	a0,a5
     d48:	00006097          	auipc	ra,0x6
     d4c:	358080e7          	jalr	856(ra) # 70a0 <close>
     d50:	fe042783          	lw	a5,-32(s0)
     d54:	853e                	mv	a0,a5
     d56:	00006097          	auipc	ra,0x6
     d5a:	34a080e7          	jalr	842(ra) # 70a0 <close>
     d5e:	0001                	nop
     d60:	60a6                	ld	ra,72(sp)
     d62:	6406                	ld	s0,64(sp)
     d64:	6161                	addi	sp,sp,80
     d66:	8082                	ret

0000000000000d68 <truncate2>:
     d68:	7179                	addi	sp,sp,-48
     d6a:	f406                	sd	ra,40(sp)
     d6c:	f022                	sd	s0,32(sp)
     d6e:	1800                	addi	s0,sp,48
     d70:	fca43c23          	sd	a0,-40(s0)
     d74:	00007517          	auipc	a0,0x7
     d78:	24c50513          	addi	a0,a0,588 # 7fc0 <longjmp_1+0x678>
     d7c:	00006097          	auipc	ra,0x6
     d80:	34c080e7          	jalr	844(ra) # 70c8 <unlink>
     d84:	60100593          	li	a1,1537
     d88:	00007517          	auipc	a0,0x7
     d8c:	23850513          	addi	a0,a0,568 # 7fc0 <longjmp_1+0x678>
     d90:	00006097          	auipc	ra,0x6
     d94:	328080e7          	jalr	808(ra) # 70b8 <open>
     d98:	87aa                	mv	a5,a0
     d9a:	fef42623          	sw	a5,-20(s0)
     d9e:	fec42783          	lw	a5,-20(s0)
     da2:	4611                	li	a2,4
     da4:	00007597          	auipc	a1,0x7
     da8:	22c58593          	addi	a1,a1,556 # 7fd0 <longjmp_1+0x688>
     dac:	853e                	mv	a0,a5
     dae:	00006097          	auipc	ra,0x6
     db2:	2ea080e7          	jalr	746(ra) # 7098 <write>
     db6:	40100593          	li	a1,1025
     dba:	00007517          	auipc	a0,0x7
     dbe:	20650513          	addi	a0,a0,518 # 7fc0 <longjmp_1+0x678>
     dc2:	00006097          	auipc	ra,0x6
     dc6:	2f6080e7          	jalr	758(ra) # 70b8 <open>
     dca:	87aa                	mv	a5,a0
     dcc:	fef42423          	sw	a5,-24(s0)
     dd0:	fec42783          	lw	a5,-20(s0)
     dd4:	4605                	li	a2,1
     dd6:	00007597          	auipc	a1,0x7
     dda:	faa58593          	addi	a1,a1,-86 # 7d80 <longjmp_1+0x438>
     dde:	853e                	mv	a0,a5
     de0:	00006097          	auipc	ra,0x6
     de4:	2b8080e7          	jalr	696(ra) # 7098 <write>
     de8:	87aa                	mv	a5,a0
     dea:	fef42223          	sw	a5,-28(s0)
     dee:	fe442783          	lw	a5,-28(s0)
     df2:	0007871b          	sext.w	a4,a5
     df6:	57fd                	li	a5,-1
     df8:	02f70463          	beq	a4,a5,e20 <truncate2+0xb8>
     dfc:	fe442783          	lw	a5,-28(s0)
     e00:	863e                	mv	a2,a5
     e02:	fd843583          	ld	a1,-40(s0)
     e06:	00007517          	auipc	a0,0x7
     e0a:	27a50513          	addi	a0,a0,634 # 8080 <longjmp_1+0x738>
     e0e:	00006097          	auipc	ra,0x6
     e12:	798080e7          	jalr	1944(ra) # 75a6 <printf>
     e16:	4505                	li	a0,1
     e18:	00006097          	auipc	ra,0x6
     e1c:	260080e7          	jalr	608(ra) # 7078 <exit>
     e20:	00007517          	auipc	a0,0x7
     e24:	1a050513          	addi	a0,a0,416 # 7fc0 <longjmp_1+0x678>
     e28:	00006097          	auipc	ra,0x6
     e2c:	2a0080e7          	jalr	672(ra) # 70c8 <unlink>
     e30:	fec42783          	lw	a5,-20(s0)
     e34:	853e                	mv	a0,a5
     e36:	00006097          	auipc	ra,0x6
     e3a:	26a080e7          	jalr	618(ra) # 70a0 <close>
     e3e:	fe842783          	lw	a5,-24(s0)
     e42:	853e                	mv	a0,a5
     e44:	00006097          	auipc	ra,0x6
     e48:	25c080e7          	jalr	604(ra) # 70a0 <close>
     e4c:	0001                	nop
     e4e:	70a2                	ld	ra,40(sp)
     e50:	7402                	ld	s0,32(sp)
     e52:	6145                	addi	sp,sp,48
     e54:	8082                	ret

0000000000000e56 <truncate3>:
     e56:	711d                	addi	sp,sp,-96
     e58:	ec86                	sd	ra,88(sp)
     e5a:	e8a2                	sd	s0,80(sp)
     e5c:	1080                	addi	s0,sp,96
     e5e:	faa43423          	sd	a0,-88(s0)
     e62:	60100593          	li	a1,1537
     e66:	00007517          	auipc	a0,0x7
     e6a:	15a50513          	addi	a0,a0,346 # 7fc0 <longjmp_1+0x678>
     e6e:	00006097          	auipc	ra,0x6
     e72:	24a080e7          	jalr	586(ra) # 70b8 <open>
     e76:	87aa                	mv	a5,a0
     e78:	853e                	mv	a0,a5
     e7a:	00006097          	auipc	ra,0x6
     e7e:	226080e7          	jalr	550(ra) # 70a0 <close>
     e82:	00006097          	auipc	ra,0x6
     e86:	1ee080e7          	jalr	494(ra) # 7070 <fork>
     e8a:	87aa                	mv	a5,a0
     e8c:	fef42223          	sw	a5,-28(s0)
     e90:	fe442783          	lw	a5,-28(s0)
     e94:	2781                	sext.w	a5,a5
     e96:	0207d163          	bgez	a5,eb8 <truncate3+0x62>
     e9a:	fa843583          	ld	a1,-88(s0)
     e9e:	00007517          	auipc	a0,0x7
     ea2:	20a50513          	addi	a0,a0,522 # 80a8 <longjmp_1+0x760>
     ea6:	00006097          	auipc	ra,0x6
     eaa:	700080e7          	jalr	1792(ra) # 75a6 <printf>
     eae:	4505                	li	a0,1
     eb0:	00006097          	auipc	ra,0x6
     eb4:	1c8080e7          	jalr	456(ra) # 7078 <exit>
     eb8:	fe442783          	lw	a5,-28(s0)
     ebc:	2781                	sext.w	a5,a5
     ebe:	10079563          	bnez	a5,fc8 <truncate3+0x172>
     ec2:	fe042623          	sw	zero,-20(s0)
     ec6:	a0e5                	j	fae <truncate3+0x158>
     ec8:	4585                	li	a1,1
     eca:	00007517          	auipc	a0,0x7
     ece:	0f650513          	addi	a0,a0,246 # 7fc0 <longjmp_1+0x678>
     ed2:	00006097          	auipc	ra,0x6
     ed6:	1e6080e7          	jalr	486(ra) # 70b8 <open>
     eda:	87aa                	mv	a5,a0
     edc:	fcf42c23          	sw	a5,-40(s0)
     ee0:	fd842783          	lw	a5,-40(s0)
     ee4:	2781                	sext.w	a5,a5
     ee6:	0207d163          	bgez	a5,f08 <truncate3+0xb2>
     eea:	fa843583          	ld	a1,-88(s0)
     eee:	00007517          	auipc	a0,0x7
     ef2:	1d250513          	addi	a0,a0,466 # 80c0 <longjmp_1+0x778>
     ef6:	00006097          	auipc	ra,0x6
     efa:	6b0080e7          	jalr	1712(ra) # 75a6 <printf>
     efe:	4505                	li	a0,1
     f00:	00006097          	auipc	ra,0x6
     f04:	178080e7          	jalr	376(ra) # 7078 <exit>
     f08:	fd842783          	lw	a5,-40(s0)
     f0c:	4629                	li	a2,10
     f0e:	00007597          	auipc	a1,0x7
     f12:	1ca58593          	addi	a1,a1,458 # 80d8 <longjmp_1+0x790>
     f16:	853e                	mv	a0,a5
     f18:	00006097          	auipc	ra,0x6
     f1c:	180080e7          	jalr	384(ra) # 7098 <write>
     f20:	87aa                	mv	a5,a0
     f22:	fcf42a23          	sw	a5,-44(s0)
     f26:	fd442783          	lw	a5,-44(s0)
     f2a:	0007871b          	sext.w	a4,a5
     f2e:	47a9                	li	a5,10
     f30:	02f70463          	beq	a4,a5,f58 <truncate3+0x102>
     f34:	fd442783          	lw	a5,-44(s0)
     f38:	863e                	mv	a2,a5
     f3a:	fa843583          	ld	a1,-88(s0)
     f3e:	00007517          	auipc	a0,0x7
     f42:	1aa50513          	addi	a0,a0,426 # 80e8 <longjmp_1+0x7a0>
     f46:	00006097          	auipc	ra,0x6
     f4a:	660080e7          	jalr	1632(ra) # 75a6 <printf>
     f4e:	4505                	li	a0,1
     f50:	00006097          	auipc	ra,0x6
     f54:	128080e7          	jalr	296(ra) # 7078 <exit>
     f58:	fd842783          	lw	a5,-40(s0)
     f5c:	853e                	mv	a0,a5
     f5e:	00006097          	auipc	ra,0x6
     f62:	142080e7          	jalr	322(ra) # 70a0 <close>
     f66:	4581                	li	a1,0
     f68:	00007517          	auipc	a0,0x7
     f6c:	05850513          	addi	a0,a0,88 # 7fc0 <longjmp_1+0x678>
     f70:	00006097          	auipc	ra,0x6
     f74:	148080e7          	jalr	328(ra) # 70b8 <open>
     f78:	87aa                	mv	a5,a0
     f7a:	fcf42c23          	sw	a5,-40(s0)
     f7e:	fb040713          	addi	a4,s0,-80
     f82:	fd842783          	lw	a5,-40(s0)
     f86:	02000613          	li	a2,32
     f8a:	85ba                	mv	a1,a4
     f8c:	853e                	mv	a0,a5
     f8e:	00006097          	auipc	ra,0x6
     f92:	102080e7          	jalr	258(ra) # 7090 <read>
     f96:	fd842783          	lw	a5,-40(s0)
     f9a:	853e                	mv	a0,a5
     f9c:	00006097          	auipc	ra,0x6
     fa0:	104080e7          	jalr	260(ra) # 70a0 <close>
     fa4:	fec42783          	lw	a5,-20(s0)
     fa8:	2785                	addiw	a5,a5,1
     faa:	fef42623          	sw	a5,-20(s0)
     fae:	fec42783          	lw	a5,-20(s0)
     fb2:	0007871b          	sext.w	a4,a5
     fb6:	06300793          	li	a5,99
     fba:	f0e7d7e3          	bge	a5,a4,ec8 <truncate3+0x72>
     fbe:	4501                	li	a0,0
     fc0:	00006097          	auipc	ra,0x6
     fc4:	0b8080e7          	jalr	184(ra) # 7078 <exit>
     fc8:	fe042423          	sw	zero,-24(s0)
     fcc:	a075                	j	1078 <truncate3+0x222>
     fce:	60100593          	li	a1,1537
     fd2:	00007517          	auipc	a0,0x7
     fd6:	fee50513          	addi	a0,a0,-18 # 7fc0 <longjmp_1+0x678>
     fda:	00006097          	auipc	ra,0x6
     fde:	0de080e7          	jalr	222(ra) # 70b8 <open>
     fe2:	87aa                	mv	a5,a0
     fe4:	fef42023          	sw	a5,-32(s0)
     fe8:	fe042783          	lw	a5,-32(s0)
     fec:	2781                	sext.w	a5,a5
     fee:	0207d163          	bgez	a5,1010 <truncate3+0x1ba>
     ff2:	fa843583          	ld	a1,-88(s0)
     ff6:	00007517          	auipc	a0,0x7
     ffa:	0ca50513          	addi	a0,a0,202 # 80c0 <longjmp_1+0x778>
     ffe:	00006097          	auipc	ra,0x6
    1002:	5a8080e7          	jalr	1448(ra) # 75a6 <printf>
    1006:	4505                	li	a0,1
    1008:	00006097          	auipc	ra,0x6
    100c:	070080e7          	jalr	112(ra) # 7078 <exit>
    1010:	fe042783          	lw	a5,-32(s0)
    1014:	460d                	li	a2,3
    1016:	00007597          	auipc	a1,0x7
    101a:	0f258593          	addi	a1,a1,242 # 8108 <longjmp_1+0x7c0>
    101e:	853e                	mv	a0,a5
    1020:	00006097          	auipc	ra,0x6
    1024:	078080e7          	jalr	120(ra) # 7098 <write>
    1028:	87aa                	mv	a5,a0
    102a:	fcf42e23          	sw	a5,-36(s0)
    102e:	fdc42783          	lw	a5,-36(s0)
    1032:	0007871b          	sext.w	a4,a5
    1036:	478d                	li	a5,3
    1038:	02f70463          	beq	a4,a5,1060 <truncate3+0x20a>
    103c:	fdc42783          	lw	a5,-36(s0)
    1040:	863e                	mv	a2,a5
    1042:	fa843583          	ld	a1,-88(s0)
    1046:	00007517          	auipc	a0,0x7
    104a:	0ca50513          	addi	a0,a0,202 # 8110 <longjmp_1+0x7c8>
    104e:	00006097          	auipc	ra,0x6
    1052:	558080e7          	jalr	1368(ra) # 75a6 <printf>
    1056:	4505                	li	a0,1
    1058:	00006097          	auipc	ra,0x6
    105c:	020080e7          	jalr	32(ra) # 7078 <exit>
    1060:	fe042783          	lw	a5,-32(s0)
    1064:	853e                	mv	a0,a5
    1066:	00006097          	auipc	ra,0x6
    106a:	03a080e7          	jalr	58(ra) # 70a0 <close>
    106e:	fe842783          	lw	a5,-24(s0)
    1072:	2785                	addiw	a5,a5,1
    1074:	fef42423          	sw	a5,-24(s0)
    1078:	fe842783          	lw	a5,-24(s0)
    107c:	0007871b          	sext.w	a4,a5
    1080:	09500793          	li	a5,149
    1084:	f4e7d5e3          	bge	a5,a4,fce <truncate3+0x178>
    1088:	fd040793          	addi	a5,s0,-48
    108c:	853e                	mv	a0,a5
    108e:	00006097          	auipc	ra,0x6
    1092:	ff2080e7          	jalr	-14(ra) # 7080 <wait>
    1096:	00007517          	auipc	a0,0x7
    109a:	f2a50513          	addi	a0,a0,-214 # 7fc0 <longjmp_1+0x678>
    109e:	00006097          	auipc	ra,0x6
    10a2:	02a080e7          	jalr	42(ra) # 70c8 <unlink>
    10a6:	fd042783          	lw	a5,-48(s0)
    10aa:	853e                	mv	a0,a5
    10ac:	00006097          	auipc	ra,0x6
    10b0:	fcc080e7          	jalr	-52(ra) # 7078 <exit>

00000000000010b4 <iputtest>:
    10b4:	1101                	addi	sp,sp,-32
    10b6:	ec06                	sd	ra,24(sp)
    10b8:	e822                	sd	s0,16(sp)
    10ba:	1000                	addi	s0,sp,32
    10bc:	fea43423          	sd	a0,-24(s0)
    10c0:	00007517          	auipc	a0,0x7
    10c4:	07050513          	addi	a0,a0,112 # 8130 <longjmp_1+0x7e8>
    10c8:	00006097          	auipc	ra,0x6
    10cc:	018080e7          	jalr	24(ra) # 70e0 <mkdir>
    10d0:	87aa                	mv	a5,a0
    10d2:	0207d163          	bgez	a5,10f4 <iputtest+0x40>
    10d6:	fe843583          	ld	a1,-24(s0)
    10da:	00007517          	auipc	a0,0x7
    10de:	05e50513          	addi	a0,a0,94 # 8138 <longjmp_1+0x7f0>
    10e2:	00006097          	auipc	ra,0x6
    10e6:	4c4080e7          	jalr	1220(ra) # 75a6 <printf>
    10ea:	4505                	li	a0,1
    10ec:	00006097          	auipc	ra,0x6
    10f0:	f8c080e7          	jalr	-116(ra) # 7078 <exit>
    10f4:	00007517          	auipc	a0,0x7
    10f8:	03c50513          	addi	a0,a0,60 # 8130 <longjmp_1+0x7e8>
    10fc:	00006097          	auipc	ra,0x6
    1100:	fec080e7          	jalr	-20(ra) # 70e8 <chdir>
    1104:	87aa                	mv	a5,a0
    1106:	0207d163          	bgez	a5,1128 <iputtest+0x74>
    110a:	fe843583          	ld	a1,-24(s0)
    110e:	00007517          	auipc	a0,0x7
    1112:	04250513          	addi	a0,a0,66 # 8150 <longjmp_1+0x808>
    1116:	00006097          	auipc	ra,0x6
    111a:	490080e7          	jalr	1168(ra) # 75a6 <printf>
    111e:	4505                	li	a0,1
    1120:	00006097          	auipc	ra,0x6
    1124:	f58080e7          	jalr	-168(ra) # 7078 <exit>
    1128:	00007517          	auipc	a0,0x7
    112c:	04850513          	addi	a0,a0,72 # 8170 <longjmp_1+0x828>
    1130:	00006097          	auipc	ra,0x6
    1134:	f98080e7          	jalr	-104(ra) # 70c8 <unlink>
    1138:	87aa                	mv	a5,a0
    113a:	0207d163          	bgez	a5,115c <iputtest+0xa8>
    113e:	fe843583          	ld	a1,-24(s0)
    1142:	00007517          	auipc	a0,0x7
    1146:	03e50513          	addi	a0,a0,62 # 8180 <longjmp_1+0x838>
    114a:	00006097          	auipc	ra,0x6
    114e:	45c080e7          	jalr	1116(ra) # 75a6 <printf>
    1152:	4505                	li	a0,1
    1154:	00006097          	auipc	ra,0x6
    1158:	f24080e7          	jalr	-220(ra) # 7078 <exit>
    115c:	00007517          	auipc	a0,0x7
    1160:	04450513          	addi	a0,a0,68 # 81a0 <longjmp_1+0x858>
    1164:	00006097          	auipc	ra,0x6
    1168:	f84080e7          	jalr	-124(ra) # 70e8 <chdir>
    116c:	87aa                	mv	a5,a0
    116e:	0207d163          	bgez	a5,1190 <iputtest+0xdc>
    1172:	fe843583          	ld	a1,-24(s0)
    1176:	00007517          	auipc	a0,0x7
    117a:	03250513          	addi	a0,a0,50 # 81a8 <longjmp_1+0x860>
    117e:	00006097          	auipc	ra,0x6
    1182:	428080e7          	jalr	1064(ra) # 75a6 <printf>
    1186:	4505                	li	a0,1
    1188:	00006097          	auipc	ra,0x6
    118c:	ef0080e7          	jalr	-272(ra) # 7078 <exit>
    1190:	0001                	nop
    1192:	60e2                	ld	ra,24(sp)
    1194:	6442                	ld	s0,16(sp)
    1196:	6105                	addi	sp,sp,32
    1198:	8082                	ret

000000000000119a <exitiputtest>:
    119a:	7179                	addi	sp,sp,-48
    119c:	f406                	sd	ra,40(sp)
    119e:	f022                	sd	s0,32(sp)
    11a0:	1800                	addi	s0,sp,48
    11a2:	fca43c23          	sd	a0,-40(s0)
    11a6:	00006097          	auipc	ra,0x6
    11aa:	eca080e7          	jalr	-310(ra) # 7070 <fork>
    11ae:	87aa                	mv	a5,a0
    11b0:	fef42623          	sw	a5,-20(s0)
    11b4:	fec42783          	lw	a5,-20(s0)
    11b8:	2781                	sext.w	a5,a5
    11ba:	0207d163          	bgez	a5,11dc <exitiputtest+0x42>
    11be:	fd843583          	ld	a1,-40(s0)
    11c2:	00007517          	auipc	a0,0x7
    11c6:	ee650513          	addi	a0,a0,-282 # 80a8 <longjmp_1+0x760>
    11ca:	00006097          	auipc	ra,0x6
    11ce:	3dc080e7          	jalr	988(ra) # 75a6 <printf>
    11d2:	4505                	li	a0,1
    11d4:	00006097          	auipc	ra,0x6
    11d8:	ea4080e7          	jalr	-348(ra) # 7078 <exit>
    11dc:	fec42783          	lw	a5,-20(s0)
    11e0:	2781                	sext.w	a5,a5
    11e2:	e7c5                	bnez	a5,128a <exitiputtest+0xf0>
    11e4:	00007517          	auipc	a0,0x7
    11e8:	f4c50513          	addi	a0,a0,-180 # 8130 <longjmp_1+0x7e8>
    11ec:	00006097          	auipc	ra,0x6
    11f0:	ef4080e7          	jalr	-268(ra) # 70e0 <mkdir>
    11f4:	87aa                	mv	a5,a0
    11f6:	0207d163          	bgez	a5,1218 <exitiputtest+0x7e>
    11fa:	fd843583          	ld	a1,-40(s0)
    11fe:	00007517          	auipc	a0,0x7
    1202:	f3a50513          	addi	a0,a0,-198 # 8138 <longjmp_1+0x7f0>
    1206:	00006097          	auipc	ra,0x6
    120a:	3a0080e7          	jalr	928(ra) # 75a6 <printf>
    120e:	4505                	li	a0,1
    1210:	00006097          	auipc	ra,0x6
    1214:	e68080e7          	jalr	-408(ra) # 7078 <exit>
    1218:	00007517          	auipc	a0,0x7
    121c:	f1850513          	addi	a0,a0,-232 # 8130 <longjmp_1+0x7e8>
    1220:	00006097          	auipc	ra,0x6
    1224:	ec8080e7          	jalr	-312(ra) # 70e8 <chdir>
    1228:	87aa                	mv	a5,a0
    122a:	0207d163          	bgez	a5,124c <exitiputtest+0xb2>
    122e:	fd843583          	ld	a1,-40(s0)
    1232:	00007517          	auipc	a0,0x7
    1236:	f8e50513          	addi	a0,a0,-114 # 81c0 <longjmp_1+0x878>
    123a:	00006097          	auipc	ra,0x6
    123e:	36c080e7          	jalr	876(ra) # 75a6 <printf>
    1242:	4505                	li	a0,1
    1244:	00006097          	auipc	ra,0x6
    1248:	e34080e7          	jalr	-460(ra) # 7078 <exit>
    124c:	00007517          	auipc	a0,0x7
    1250:	f2450513          	addi	a0,a0,-220 # 8170 <longjmp_1+0x828>
    1254:	00006097          	auipc	ra,0x6
    1258:	e74080e7          	jalr	-396(ra) # 70c8 <unlink>
    125c:	87aa                	mv	a5,a0
    125e:	0207d163          	bgez	a5,1280 <exitiputtest+0xe6>
    1262:	fd843583          	ld	a1,-40(s0)
    1266:	00007517          	auipc	a0,0x7
    126a:	f1a50513          	addi	a0,a0,-230 # 8180 <longjmp_1+0x838>
    126e:	00006097          	auipc	ra,0x6
    1272:	338080e7          	jalr	824(ra) # 75a6 <printf>
    1276:	4505                	li	a0,1
    1278:	00006097          	auipc	ra,0x6
    127c:	e00080e7          	jalr	-512(ra) # 7078 <exit>
    1280:	4501                	li	a0,0
    1282:	00006097          	auipc	ra,0x6
    1286:	df6080e7          	jalr	-522(ra) # 7078 <exit>
    128a:	fe840793          	addi	a5,s0,-24
    128e:	853e                	mv	a0,a5
    1290:	00006097          	auipc	ra,0x6
    1294:	df0080e7          	jalr	-528(ra) # 7080 <wait>
    1298:	fe842783          	lw	a5,-24(s0)
    129c:	853e                	mv	a0,a5
    129e:	00006097          	auipc	ra,0x6
    12a2:	dda080e7          	jalr	-550(ra) # 7078 <exit>

00000000000012a6 <openiputtest>:
    12a6:	7179                	addi	sp,sp,-48
    12a8:	f406                	sd	ra,40(sp)
    12aa:	f022                	sd	s0,32(sp)
    12ac:	1800                	addi	s0,sp,48
    12ae:	fca43c23          	sd	a0,-40(s0)
    12b2:	00007517          	auipc	a0,0x7
    12b6:	f2650513          	addi	a0,a0,-218 # 81d8 <longjmp_1+0x890>
    12ba:	00006097          	auipc	ra,0x6
    12be:	e26080e7          	jalr	-474(ra) # 70e0 <mkdir>
    12c2:	87aa                	mv	a5,a0
    12c4:	0207d163          	bgez	a5,12e6 <openiputtest+0x40>
    12c8:	fd843583          	ld	a1,-40(s0)
    12cc:	00007517          	auipc	a0,0x7
    12d0:	f1450513          	addi	a0,a0,-236 # 81e0 <longjmp_1+0x898>
    12d4:	00006097          	auipc	ra,0x6
    12d8:	2d2080e7          	jalr	722(ra) # 75a6 <printf>
    12dc:	4505                	li	a0,1
    12de:	00006097          	auipc	ra,0x6
    12e2:	d9a080e7          	jalr	-614(ra) # 7078 <exit>
    12e6:	00006097          	auipc	ra,0x6
    12ea:	d8a080e7          	jalr	-630(ra) # 7070 <fork>
    12ee:	87aa                	mv	a5,a0
    12f0:	fef42623          	sw	a5,-20(s0)
    12f4:	fec42783          	lw	a5,-20(s0)
    12f8:	2781                	sext.w	a5,a5
    12fa:	0207d163          	bgez	a5,131c <openiputtest+0x76>
    12fe:	fd843583          	ld	a1,-40(s0)
    1302:	00007517          	auipc	a0,0x7
    1306:	da650513          	addi	a0,a0,-602 # 80a8 <longjmp_1+0x760>
    130a:	00006097          	auipc	ra,0x6
    130e:	29c080e7          	jalr	668(ra) # 75a6 <printf>
    1312:	4505                	li	a0,1
    1314:	00006097          	auipc	ra,0x6
    1318:	d64080e7          	jalr	-668(ra) # 7078 <exit>
    131c:	fec42783          	lw	a5,-20(s0)
    1320:	2781                	sext.w	a5,a5
    1322:	e7b1                	bnez	a5,136e <openiputtest+0xc8>
    1324:	4589                	li	a1,2
    1326:	00007517          	auipc	a0,0x7
    132a:	eb250513          	addi	a0,a0,-334 # 81d8 <longjmp_1+0x890>
    132e:	00006097          	auipc	ra,0x6
    1332:	d8a080e7          	jalr	-630(ra) # 70b8 <open>
    1336:	87aa                	mv	a5,a0
    1338:	fef42423          	sw	a5,-24(s0)
    133c:	fe842783          	lw	a5,-24(s0)
    1340:	2781                	sext.w	a5,a5
    1342:	0207c163          	bltz	a5,1364 <openiputtest+0xbe>
    1346:	fd843583          	ld	a1,-40(s0)
    134a:	00007517          	auipc	a0,0x7
    134e:	eae50513          	addi	a0,a0,-338 # 81f8 <longjmp_1+0x8b0>
    1352:	00006097          	auipc	ra,0x6
    1356:	254080e7          	jalr	596(ra) # 75a6 <printf>
    135a:	4505                	li	a0,1
    135c:	00006097          	auipc	ra,0x6
    1360:	d1c080e7          	jalr	-740(ra) # 7078 <exit>
    1364:	4501                	li	a0,0
    1366:	00006097          	auipc	ra,0x6
    136a:	d12080e7          	jalr	-750(ra) # 7078 <exit>
    136e:	4505                	li	a0,1
    1370:	00006097          	auipc	ra,0x6
    1374:	d98080e7          	jalr	-616(ra) # 7108 <sleep>
    1378:	00007517          	auipc	a0,0x7
    137c:	e6050513          	addi	a0,a0,-416 # 81d8 <longjmp_1+0x890>
    1380:	00006097          	auipc	ra,0x6
    1384:	d48080e7          	jalr	-696(ra) # 70c8 <unlink>
    1388:	87aa                	mv	a5,a0
    138a:	c385                	beqz	a5,13aa <openiputtest+0x104>
    138c:	fd843583          	ld	a1,-40(s0)
    1390:	00007517          	auipc	a0,0x7
    1394:	e9050513          	addi	a0,a0,-368 # 8220 <longjmp_1+0x8d8>
    1398:	00006097          	auipc	ra,0x6
    139c:	20e080e7          	jalr	526(ra) # 75a6 <printf>
    13a0:	4505                	li	a0,1
    13a2:	00006097          	auipc	ra,0x6
    13a6:	cd6080e7          	jalr	-810(ra) # 7078 <exit>
    13aa:	fe440793          	addi	a5,s0,-28
    13ae:	853e                	mv	a0,a5
    13b0:	00006097          	auipc	ra,0x6
    13b4:	cd0080e7          	jalr	-816(ra) # 7080 <wait>
    13b8:	fe442783          	lw	a5,-28(s0)
    13bc:	853e                	mv	a0,a5
    13be:	00006097          	auipc	ra,0x6
    13c2:	cba080e7          	jalr	-838(ra) # 7078 <exit>

00000000000013c6 <opentest>:
    13c6:	7179                	addi	sp,sp,-48
    13c8:	f406                	sd	ra,40(sp)
    13ca:	f022                	sd	s0,32(sp)
    13cc:	1800                	addi	s0,sp,48
    13ce:	fca43c23          	sd	a0,-40(s0)
    13d2:	4581                	li	a1,0
    13d4:	00007517          	auipc	a0,0x7
    13d8:	abc50513          	addi	a0,a0,-1348 # 7e90 <longjmp_1+0x548>
    13dc:	00006097          	auipc	ra,0x6
    13e0:	cdc080e7          	jalr	-804(ra) # 70b8 <open>
    13e4:	87aa                	mv	a5,a0
    13e6:	fef42623          	sw	a5,-20(s0)
    13ea:	fec42783          	lw	a5,-20(s0)
    13ee:	2781                	sext.w	a5,a5
    13f0:	0207d163          	bgez	a5,1412 <opentest+0x4c>
    13f4:	fd843583          	ld	a1,-40(s0)
    13f8:	00007517          	auipc	a0,0x7
    13fc:	e4050513          	addi	a0,a0,-448 # 8238 <longjmp_1+0x8f0>
    1400:	00006097          	auipc	ra,0x6
    1404:	1a6080e7          	jalr	422(ra) # 75a6 <printf>
    1408:	4505                	li	a0,1
    140a:	00006097          	auipc	ra,0x6
    140e:	c6e080e7          	jalr	-914(ra) # 7078 <exit>
    1412:	fec42783          	lw	a5,-20(s0)
    1416:	853e                	mv	a0,a5
    1418:	00006097          	auipc	ra,0x6
    141c:	c88080e7          	jalr	-888(ra) # 70a0 <close>
    1420:	4581                	li	a1,0
    1422:	00007517          	auipc	a0,0x7
    1426:	e2e50513          	addi	a0,a0,-466 # 8250 <longjmp_1+0x908>
    142a:	00006097          	auipc	ra,0x6
    142e:	c8e080e7          	jalr	-882(ra) # 70b8 <open>
    1432:	87aa                	mv	a5,a0
    1434:	fef42623          	sw	a5,-20(s0)
    1438:	fec42783          	lw	a5,-20(s0)
    143c:	2781                	sext.w	a5,a5
    143e:	0207c163          	bltz	a5,1460 <opentest+0x9a>
    1442:	fd843583          	ld	a1,-40(s0)
    1446:	00007517          	auipc	a0,0x7
    144a:	e1a50513          	addi	a0,a0,-486 # 8260 <longjmp_1+0x918>
    144e:	00006097          	auipc	ra,0x6
    1452:	158080e7          	jalr	344(ra) # 75a6 <printf>
    1456:	4505                	li	a0,1
    1458:	00006097          	auipc	ra,0x6
    145c:	c20080e7          	jalr	-992(ra) # 7078 <exit>
    1460:	0001                	nop
    1462:	70a2                	ld	ra,40(sp)
    1464:	7402                	ld	s0,32(sp)
    1466:	6145                	addi	sp,sp,48
    1468:	8082                	ret

000000000000146a <writetest>:
    146a:	7179                	addi	sp,sp,-48
    146c:	f406                	sd	ra,40(sp)
    146e:	f022                	sd	s0,32(sp)
    1470:	1800                	addi	s0,sp,48
    1472:	fca43c23          	sd	a0,-40(s0)
    1476:	20200593          	li	a1,514
    147a:	00007517          	auipc	a0,0x7
    147e:	e0e50513          	addi	a0,a0,-498 # 8288 <longjmp_1+0x940>
    1482:	00006097          	auipc	ra,0x6
    1486:	c36080e7          	jalr	-970(ra) # 70b8 <open>
    148a:	87aa                	mv	a5,a0
    148c:	fef42423          	sw	a5,-24(s0)
    1490:	fe842783          	lw	a5,-24(s0)
    1494:	2781                	sext.w	a5,a5
    1496:	0207d163          	bgez	a5,14b8 <writetest+0x4e>
    149a:	fd843583          	ld	a1,-40(s0)
    149e:	00007517          	auipc	a0,0x7
    14a2:	df250513          	addi	a0,a0,-526 # 8290 <longjmp_1+0x948>
    14a6:	00006097          	auipc	ra,0x6
    14aa:	100080e7          	jalr	256(ra) # 75a6 <printf>
    14ae:	4505                	li	a0,1
    14b0:	00006097          	auipc	ra,0x6
    14b4:	bc8080e7          	jalr	-1080(ra) # 7078 <exit>
    14b8:	fe042623          	sw	zero,-20(s0)
    14bc:	a861                	j	1554 <writetest+0xea>
    14be:	fe842783          	lw	a5,-24(s0)
    14c2:	4629                	li	a2,10
    14c4:	00007597          	auipc	a1,0x7
    14c8:	dec58593          	addi	a1,a1,-532 # 82b0 <longjmp_1+0x968>
    14cc:	853e                	mv	a0,a5
    14ce:	00006097          	auipc	ra,0x6
    14d2:	bca080e7          	jalr	-1078(ra) # 7098 <write>
    14d6:	87aa                	mv	a5,a0
    14d8:	873e                	mv	a4,a5
    14da:	47a9                	li	a5,10
    14dc:	02f70463          	beq	a4,a5,1504 <writetest+0x9a>
    14e0:	fec42783          	lw	a5,-20(s0)
    14e4:	863e                	mv	a2,a5
    14e6:	fd843583          	ld	a1,-40(s0)
    14ea:	00007517          	auipc	a0,0x7
    14ee:	dd650513          	addi	a0,a0,-554 # 82c0 <longjmp_1+0x978>
    14f2:	00006097          	auipc	ra,0x6
    14f6:	0b4080e7          	jalr	180(ra) # 75a6 <printf>
    14fa:	4505                	li	a0,1
    14fc:	00006097          	auipc	ra,0x6
    1500:	b7c080e7          	jalr	-1156(ra) # 7078 <exit>
    1504:	fe842783          	lw	a5,-24(s0)
    1508:	4629                	li	a2,10
    150a:	00007597          	auipc	a1,0x7
    150e:	dde58593          	addi	a1,a1,-546 # 82e8 <longjmp_1+0x9a0>
    1512:	853e                	mv	a0,a5
    1514:	00006097          	auipc	ra,0x6
    1518:	b84080e7          	jalr	-1148(ra) # 7098 <write>
    151c:	87aa                	mv	a5,a0
    151e:	873e                	mv	a4,a5
    1520:	47a9                	li	a5,10
    1522:	02f70463          	beq	a4,a5,154a <writetest+0xe0>
    1526:	fec42783          	lw	a5,-20(s0)
    152a:	863e                	mv	a2,a5
    152c:	fd843583          	ld	a1,-40(s0)
    1530:	00007517          	auipc	a0,0x7
    1534:	dc850513          	addi	a0,a0,-568 # 82f8 <longjmp_1+0x9b0>
    1538:	00006097          	auipc	ra,0x6
    153c:	06e080e7          	jalr	110(ra) # 75a6 <printf>
    1540:	4505                	li	a0,1
    1542:	00006097          	auipc	ra,0x6
    1546:	b36080e7          	jalr	-1226(ra) # 7078 <exit>
    154a:	fec42783          	lw	a5,-20(s0)
    154e:	2785                	addiw	a5,a5,1
    1550:	fef42623          	sw	a5,-20(s0)
    1554:	fec42783          	lw	a5,-20(s0)
    1558:	0007871b          	sext.w	a4,a5
    155c:	06300793          	li	a5,99
    1560:	f4e7dfe3          	bge	a5,a4,14be <writetest+0x54>
    1564:	fe842783          	lw	a5,-24(s0)
    1568:	853e                	mv	a0,a5
    156a:	00006097          	auipc	ra,0x6
    156e:	b36080e7          	jalr	-1226(ra) # 70a0 <close>
    1572:	4581                	li	a1,0
    1574:	00007517          	auipc	a0,0x7
    1578:	d1450513          	addi	a0,a0,-748 # 8288 <longjmp_1+0x940>
    157c:	00006097          	auipc	ra,0x6
    1580:	b3c080e7          	jalr	-1220(ra) # 70b8 <open>
    1584:	87aa                	mv	a5,a0
    1586:	fef42423          	sw	a5,-24(s0)
    158a:	fe842783          	lw	a5,-24(s0)
    158e:	2781                	sext.w	a5,a5
    1590:	0207d163          	bgez	a5,15b2 <writetest+0x148>
    1594:	fd843583          	ld	a1,-40(s0)
    1598:	00007517          	auipc	a0,0x7
    159c:	d8850513          	addi	a0,a0,-632 # 8320 <longjmp_1+0x9d8>
    15a0:	00006097          	auipc	ra,0x6
    15a4:	006080e7          	jalr	6(ra) # 75a6 <printf>
    15a8:	4505                	li	a0,1
    15aa:	00006097          	auipc	ra,0x6
    15ae:	ace080e7          	jalr	-1330(ra) # 7078 <exit>
    15b2:	fe842783          	lw	a5,-24(s0)
    15b6:	7d000613          	li	a2,2000
    15ba:	00009597          	auipc	a1,0x9
    15be:	b3e58593          	addi	a1,a1,-1218 # a0f8 <buf>
    15c2:	853e                	mv	a0,a5
    15c4:	00006097          	auipc	ra,0x6
    15c8:	acc080e7          	jalr	-1332(ra) # 7090 <read>
    15cc:	87aa                	mv	a5,a0
    15ce:	fef42623          	sw	a5,-20(s0)
    15d2:	fec42783          	lw	a5,-20(s0)
    15d6:	0007871b          	sext.w	a4,a5
    15da:	7d000793          	li	a5,2000
    15de:	02f70163          	beq	a4,a5,1600 <writetest+0x196>
    15e2:	fd843583          	ld	a1,-40(s0)
    15e6:	00007517          	auipc	a0,0x7
    15ea:	d5a50513          	addi	a0,a0,-678 # 8340 <longjmp_1+0x9f8>
    15ee:	00006097          	auipc	ra,0x6
    15f2:	fb8080e7          	jalr	-72(ra) # 75a6 <printf>
    15f6:	4505                	li	a0,1
    15f8:	00006097          	auipc	ra,0x6
    15fc:	a80080e7          	jalr	-1408(ra) # 7078 <exit>
    1600:	fe842783          	lw	a5,-24(s0)
    1604:	853e                	mv	a0,a5
    1606:	00006097          	auipc	ra,0x6
    160a:	a9a080e7          	jalr	-1382(ra) # 70a0 <close>
    160e:	00007517          	auipc	a0,0x7
    1612:	c7a50513          	addi	a0,a0,-902 # 8288 <longjmp_1+0x940>
    1616:	00006097          	auipc	ra,0x6
    161a:	ab2080e7          	jalr	-1358(ra) # 70c8 <unlink>
    161e:	87aa                	mv	a5,a0
    1620:	0207d163          	bgez	a5,1642 <writetest+0x1d8>
    1624:	fd843583          	ld	a1,-40(s0)
    1628:	00007517          	auipc	a0,0x7
    162c:	d3050513          	addi	a0,a0,-720 # 8358 <longjmp_1+0xa10>
    1630:	00006097          	auipc	ra,0x6
    1634:	f76080e7          	jalr	-138(ra) # 75a6 <printf>
    1638:	4505                	li	a0,1
    163a:	00006097          	auipc	ra,0x6
    163e:	a3e080e7          	jalr	-1474(ra) # 7078 <exit>
    1642:	0001                	nop
    1644:	70a2                	ld	ra,40(sp)
    1646:	7402                	ld	s0,32(sp)
    1648:	6145                	addi	sp,sp,48
    164a:	8082                	ret

000000000000164c <writebig>:
    164c:	7179                	addi	sp,sp,-48
    164e:	f406                	sd	ra,40(sp)
    1650:	f022                	sd	s0,32(sp)
    1652:	1800                	addi	s0,sp,48
    1654:	fca43c23          	sd	a0,-40(s0)
    1658:	20200593          	li	a1,514
    165c:	00007517          	auipc	a0,0x7
    1660:	d1c50513          	addi	a0,a0,-740 # 8378 <longjmp_1+0xa30>
    1664:	00006097          	auipc	ra,0x6
    1668:	a54080e7          	jalr	-1452(ra) # 70b8 <open>
    166c:	87aa                	mv	a5,a0
    166e:	fef42223          	sw	a5,-28(s0)
    1672:	fe442783          	lw	a5,-28(s0)
    1676:	2781                	sext.w	a5,a5
    1678:	0207d163          	bgez	a5,169a <writebig+0x4e>
    167c:	fd843583          	ld	a1,-40(s0)
    1680:	00007517          	auipc	a0,0x7
    1684:	d0050513          	addi	a0,a0,-768 # 8380 <longjmp_1+0xa38>
    1688:	00006097          	auipc	ra,0x6
    168c:	f1e080e7          	jalr	-226(ra) # 75a6 <printf>
    1690:	4505                	li	a0,1
    1692:	00006097          	auipc	ra,0x6
    1696:	9e6080e7          	jalr	-1562(ra) # 7078 <exit>
    169a:	fe042623          	sw	zero,-20(s0)
    169e:	a095                	j	1702 <writebig+0xb6>
    16a0:	00009797          	auipc	a5,0x9
    16a4:	a5878793          	addi	a5,a5,-1448 # a0f8 <buf>
    16a8:	fec42703          	lw	a4,-20(s0)
    16ac:	c398                	sw	a4,0(a5)
    16ae:	fe442783          	lw	a5,-28(s0)
    16b2:	40000613          	li	a2,1024
    16b6:	00009597          	auipc	a1,0x9
    16ba:	a4258593          	addi	a1,a1,-1470 # a0f8 <buf>
    16be:	853e                	mv	a0,a5
    16c0:	00006097          	auipc	ra,0x6
    16c4:	9d8080e7          	jalr	-1576(ra) # 7098 <write>
    16c8:	87aa                	mv	a5,a0
    16ca:	873e                	mv	a4,a5
    16cc:	40000793          	li	a5,1024
    16d0:	02f70463          	beq	a4,a5,16f8 <writebig+0xac>
    16d4:	fec42783          	lw	a5,-20(s0)
    16d8:	863e                	mv	a2,a5
    16da:	fd843583          	ld	a1,-40(s0)
    16de:	00007517          	auipc	a0,0x7
    16e2:	cc250513          	addi	a0,a0,-830 # 83a0 <longjmp_1+0xa58>
    16e6:	00006097          	auipc	ra,0x6
    16ea:	ec0080e7          	jalr	-320(ra) # 75a6 <printf>
    16ee:	4505                	li	a0,1
    16f0:	00006097          	auipc	ra,0x6
    16f4:	988080e7          	jalr	-1656(ra) # 7078 <exit>
    16f8:	fec42783          	lw	a5,-20(s0)
    16fc:	2785                	addiw	a5,a5,1
    16fe:	fef42623          	sw	a5,-20(s0)
    1702:	fec42783          	lw	a5,-20(s0)
    1706:	873e                	mv	a4,a5
    1708:	10b00793          	li	a5,267
    170c:	f8e7fae3          	bgeu	a5,a4,16a0 <writebig+0x54>
    1710:	fe442783          	lw	a5,-28(s0)
    1714:	853e                	mv	a0,a5
    1716:	00006097          	auipc	ra,0x6
    171a:	98a080e7          	jalr	-1654(ra) # 70a0 <close>
    171e:	4581                	li	a1,0
    1720:	00007517          	auipc	a0,0x7
    1724:	c5850513          	addi	a0,a0,-936 # 8378 <longjmp_1+0xa30>
    1728:	00006097          	auipc	ra,0x6
    172c:	990080e7          	jalr	-1648(ra) # 70b8 <open>
    1730:	87aa                	mv	a5,a0
    1732:	fef42223          	sw	a5,-28(s0)
    1736:	fe442783          	lw	a5,-28(s0)
    173a:	2781                	sext.w	a5,a5
    173c:	0207d163          	bgez	a5,175e <writebig+0x112>
    1740:	fd843583          	ld	a1,-40(s0)
    1744:	00007517          	auipc	a0,0x7
    1748:	c8450513          	addi	a0,a0,-892 # 83c8 <longjmp_1+0xa80>
    174c:	00006097          	auipc	ra,0x6
    1750:	e5a080e7          	jalr	-422(ra) # 75a6 <printf>
    1754:	4505                	li	a0,1
    1756:	00006097          	auipc	ra,0x6
    175a:	922080e7          	jalr	-1758(ra) # 7078 <exit>
    175e:	fe042423          	sw	zero,-24(s0)
    1762:	fe442783          	lw	a5,-28(s0)
    1766:	40000613          	li	a2,1024
    176a:	00009597          	auipc	a1,0x9
    176e:	98e58593          	addi	a1,a1,-1650 # a0f8 <buf>
    1772:	853e                	mv	a0,a5
    1774:	00006097          	auipc	ra,0x6
    1778:	91c080e7          	jalr	-1764(ra) # 7090 <read>
    177c:	87aa                	mv	a5,a0
    177e:	fef42623          	sw	a5,-20(s0)
    1782:	fec42783          	lw	a5,-20(s0)
    1786:	2781                	sext.w	a5,a5
    1788:	eb9d                	bnez	a5,17be <writebig+0x172>
    178a:	fe842783          	lw	a5,-24(s0)
    178e:	0007871b          	sext.w	a4,a5
    1792:	10b00793          	li	a5,267
    1796:	0af71663          	bne	a4,a5,1842 <writebig+0x1f6>
    179a:	fe842783          	lw	a5,-24(s0)
    179e:	863e                	mv	a2,a5
    17a0:	fd843583          	ld	a1,-40(s0)
    17a4:	00007517          	auipc	a0,0x7
    17a8:	c4450513          	addi	a0,a0,-956 # 83e8 <longjmp_1+0xaa0>
    17ac:	00006097          	auipc	ra,0x6
    17b0:	dfa080e7          	jalr	-518(ra) # 75a6 <printf>
    17b4:	4505                	li	a0,1
    17b6:	00006097          	auipc	ra,0x6
    17ba:	8c2080e7          	jalr	-1854(ra) # 7078 <exit>
    17be:	fec42783          	lw	a5,-20(s0)
    17c2:	0007871b          	sext.w	a4,a5
    17c6:	40000793          	li	a5,1024
    17ca:	02f70463          	beq	a4,a5,17f2 <writebig+0x1a6>
    17ce:	fec42783          	lw	a5,-20(s0)
    17d2:	863e                	mv	a2,a5
    17d4:	fd843583          	ld	a1,-40(s0)
    17d8:	00007517          	auipc	a0,0x7
    17dc:	c3850513          	addi	a0,a0,-968 # 8410 <longjmp_1+0xac8>
    17e0:	00006097          	auipc	ra,0x6
    17e4:	dc6080e7          	jalr	-570(ra) # 75a6 <printf>
    17e8:	4505                	li	a0,1
    17ea:	00006097          	auipc	ra,0x6
    17ee:	88e080e7          	jalr	-1906(ra) # 7078 <exit>
    17f2:	00009797          	auipc	a5,0x9
    17f6:	90678793          	addi	a5,a5,-1786 # a0f8 <buf>
    17fa:	4398                	lw	a4,0(a5)
    17fc:	fe842783          	lw	a5,-24(s0)
    1800:	2781                	sext.w	a5,a5
    1802:	02e78a63          	beq	a5,a4,1836 <writebig+0x1ea>
    1806:	00009797          	auipc	a5,0x9
    180a:	8f278793          	addi	a5,a5,-1806 # a0f8 <buf>
    180e:	4398                	lw	a4,0(a5)
    1810:	fe842783          	lw	a5,-24(s0)
    1814:	86ba                	mv	a3,a4
    1816:	863e                	mv	a2,a5
    1818:	fd843583          	ld	a1,-40(s0)
    181c:	00007517          	auipc	a0,0x7
    1820:	c0c50513          	addi	a0,a0,-1012 # 8428 <longjmp_1+0xae0>
    1824:	00006097          	auipc	ra,0x6
    1828:	d82080e7          	jalr	-638(ra) # 75a6 <printf>
    182c:	4505                	li	a0,1
    182e:	00006097          	auipc	ra,0x6
    1832:	84a080e7          	jalr	-1974(ra) # 7078 <exit>
    1836:	fe842783          	lw	a5,-24(s0)
    183a:	2785                	addiw	a5,a5,1
    183c:	fef42423          	sw	a5,-24(s0)
    1840:	b70d                	j	1762 <writebig+0x116>
    1842:	0001                	nop
    1844:	fe442783          	lw	a5,-28(s0)
    1848:	853e                	mv	a0,a5
    184a:	00006097          	auipc	ra,0x6
    184e:	856080e7          	jalr	-1962(ra) # 70a0 <close>
    1852:	00007517          	auipc	a0,0x7
    1856:	b2650513          	addi	a0,a0,-1242 # 8378 <longjmp_1+0xa30>
    185a:	00006097          	auipc	ra,0x6
    185e:	86e080e7          	jalr	-1938(ra) # 70c8 <unlink>
    1862:	87aa                	mv	a5,a0
    1864:	0207d163          	bgez	a5,1886 <writebig+0x23a>
    1868:	fd843583          	ld	a1,-40(s0)
    186c:	00007517          	auipc	a0,0x7
    1870:	be450513          	addi	a0,a0,-1052 # 8450 <longjmp_1+0xb08>
    1874:	00006097          	auipc	ra,0x6
    1878:	d32080e7          	jalr	-718(ra) # 75a6 <printf>
    187c:	4505                	li	a0,1
    187e:	00005097          	auipc	ra,0x5
    1882:	7fa080e7          	jalr	2042(ra) # 7078 <exit>
    1886:	0001                	nop
    1888:	70a2                	ld	ra,40(sp)
    188a:	7402                	ld	s0,32(sp)
    188c:	6145                	addi	sp,sp,48
    188e:	8082                	ret

0000000000001890 <createtest>:
    1890:	7179                	addi	sp,sp,-48
    1892:	f406                	sd	ra,40(sp)
    1894:	f022                	sd	s0,32(sp)
    1896:	1800                	addi	s0,sp,48
    1898:	fca43c23          	sd	a0,-40(s0)
    189c:	06100793          	li	a5,97
    18a0:	fef40023          	sb	a5,-32(s0)
    18a4:	fe040123          	sb	zero,-30(s0)
    18a8:	fe042623          	sw	zero,-20(s0)
    18ac:	a099                	j	18f2 <createtest+0x62>
    18ae:	fec42783          	lw	a5,-20(s0)
    18b2:	0ff7f793          	andi	a5,a5,255
    18b6:	0307879b          	addiw	a5,a5,48
    18ba:	0ff7f793          	andi	a5,a5,255
    18be:	fef400a3          	sb	a5,-31(s0)
    18c2:	fe040793          	addi	a5,s0,-32
    18c6:	20200593          	li	a1,514
    18ca:	853e                	mv	a0,a5
    18cc:	00005097          	auipc	ra,0x5
    18d0:	7ec080e7          	jalr	2028(ra) # 70b8 <open>
    18d4:	87aa                	mv	a5,a0
    18d6:	fef42423          	sw	a5,-24(s0)
    18da:	fe842783          	lw	a5,-24(s0)
    18de:	853e                	mv	a0,a5
    18e0:	00005097          	auipc	ra,0x5
    18e4:	7c0080e7          	jalr	1984(ra) # 70a0 <close>
    18e8:	fec42783          	lw	a5,-20(s0)
    18ec:	2785                	addiw	a5,a5,1
    18ee:	fef42623          	sw	a5,-20(s0)
    18f2:	fec42783          	lw	a5,-20(s0)
    18f6:	0007871b          	sext.w	a4,a5
    18fa:	03300793          	li	a5,51
    18fe:	fae7d8e3          	bge	a5,a4,18ae <createtest+0x1e>
    1902:	06100793          	li	a5,97
    1906:	fef40023          	sb	a5,-32(s0)
    190a:	fe040123          	sb	zero,-30(s0)
    190e:	fe042623          	sw	zero,-20(s0)
    1912:	a03d                	j	1940 <createtest+0xb0>
    1914:	fec42783          	lw	a5,-20(s0)
    1918:	0ff7f793          	andi	a5,a5,255
    191c:	0307879b          	addiw	a5,a5,48
    1920:	0ff7f793          	andi	a5,a5,255
    1924:	fef400a3          	sb	a5,-31(s0)
    1928:	fe040793          	addi	a5,s0,-32
    192c:	853e                	mv	a0,a5
    192e:	00005097          	auipc	ra,0x5
    1932:	79a080e7          	jalr	1946(ra) # 70c8 <unlink>
    1936:	fec42783          	lw	a5,-20(s0)
    193a:	2785                	addiw	a5,a5,1
    193c:	fef42623          	sw	a5,-20(s0)
    1940:	fec42783          	lw	a5,-20(s0)
    1944:	0007871b          	sext.w	a4,a5
    1948:	03300793          	li	a5,51
    194c:	fce7d4e3          	bge	a5,a4,1914 <createtest+0x84>
    1950:	0001                	nop
    1952:	0001                	nop
    1954:	70a2                	ld	ra,40(sp)
    1956:	7402                	ld	s0,32(sp)
    1958:	6145                	addi	sp,sp,48
    195a:	8082                	ret

000000000000195c <dirtest>:
    195c:	1101                	addi	sp,sp,-32
    195e:	ec06                	sd	ra,24(sp)
    1960:	e822                	sd	s0,16(sp)
    1962:	1000                	addi	s0,sp,32
    1964:	fea43423          	sd	a0,-24(s0)
    1968:	00007517          	auipc	a0,0x7
    196c:	b0050513          	addi	a0,a0,-1280 # 8468 <longjmp_1+0xb20>
    1970:	00005097          	auipc	ra,0x5
    1974:	770080e7          	jalr	1904(ra) # 70e0 <mkdir>
    1978:	87aa                	mv	a5,a0
    197a:	0207d163          	bgez	a5,199c <dirtest+0x40>
    197e:	fe843583          	ld	a1,-24(s0)
    1982:	00006517          	auipc	a0,0x6
    1986:	7b650513          	addi	a0,a0,1974 # 8138 <longjmp_1+0x7f0>
    198a:	00006097          	auipc	ra,0x6
    198e:	c1c080e7          	jalr	-996(ra) # 75a6 <printf>
    1992:	4505                	li	a0,1
    1994:	00005097          	auipc	ra,0x5
    1998:	6e4080e7          	jalr	1764(ra) # 7078 <exit>
    199c:	00007517          	auipc	a0,0x7
    19a0:	acc50513          	addi	a0,a0,-1332 # 8468 <longjmp_1+0xb20>
    19a4:	00005097          	auipc	ra,0x5
    19a8:	744080e7          	jalr	1860(ra) # 70e8 <chdir>
    19ac:	87aa                	mv	a5,a0
    19ae:	0207d163          	bgez	a5,19d0 <dirtest+0x74>
    19b2:	fe843583          	ld	a1,-24(s0)
    19b6:	00007517          	auipc	a0,0x7
    19ba:	aba50513          	addi	a0,a0,-1350 # 8470 <longjmp_1+0xb28>
    19be:	00006097          	auipc	ra,0x6
    19c2:	be8080e7          	jalr	-1048(ra) # 75a6 <printf>
    19c6:	4505                	li	a0,1
    19c8:	00005097          	auipc	ra,0x5
    19cc:	6b0080e7          	jalr	1712(ra) # 7078 <exit>
    19d0:	00007517          	auipc	a0,0x7
    19d4:	ab850513          	addi	a0,a0,-1352 # 8488 <longjmp_1+0xb40>
    19d8:	00005097          	auipc	ra,0x5
    19dc:	710080e7          	jalr	1808(ra) # 70e8 <chdir>
    19e0:	87aa                	mv	a5,a0
    19e2:	0207d163          	bgez	a5,1a04 <dirtest+0xa8>
    19e6:	fe843583          	ld	a1,-24(s0)
    19ea:	00007517          	auipc	a0,0x7
    19ee:	aa650513          	addi	a0,a0,-1370 # 8490 <longjmp_1+0xb48>
    19f2:	00006097          	auipc	ra,0x6
    19f6:	bb4080e7          	jalr	-1100(ra) # 75a6 <printf>
    19fa:	4505                	li	a0,1
    19fc:	00005097          	auipc	ra,0x5
    1a00:	67c080e7          	jalr	1660(ra) # 7078 <exit>
    1a04:	00007517          	auipc	a0,0x7
    1a08:	a6450513          	addi	a0,a0,-1436 # 8468 <longjmp_1+0xb20>
    1a0c:	00005097          	auipc	ra,0x5
    1a10:	6bc080e7          	jalr	1724(ra) # 70c8 <unlink>
    1a14:	87aa                	mv	a5,a0
    1a16:	0207d163          	bgez	a5,1a38 <dirtest+0xdc>
    1a1a:	fe843583          	ld	a1,-24(s0)
    1a1e:	00007517          	auipc	a0,0x7
    1a22:	a8a50513          	addi	a0,a0,-1398 # 84a8 <longjmp_1+0xb60>
    1a26:	00006097          	auipc	ra,0x6
    1a2a:	b80080e7          	jalr	-1152(ra) # 75a6 <printf>
    1a2e:	4505                	li	a0,1
    1a30:	00005097          	auipc	ra,0x5
    1a34:	648080e7          	jalr	1608(ra) # 7078 <exit>
    1a38:	0001                	nop
    1a3a:	60e2                	ld	ra,24(sp)
    1a3c:	6442                	ld	s0,16(sp)
    1a3e:	6105                	addi	sp,sp,32
    1a40:	8082                	ret

0000000000001a42 <exectest>:
    1a42:	715d                	addi	sp,sp,-80
    1a44:	e486                	sd	ra,72(sp)
    1a46:	e0a2                	sd	s0,64(sp)
    1a48:	0880                	addi	s0,sp,80
    1a4a:	faa43c23          	sd	a0,-72(s0)
    1a4e:	00006797          	auipc	a5,0x6
    1a52:	44278793          	addi	a5,a5,1090 # 7e90 <longjmp_1+0x548>
    1a56:	fcf43423          	sd	a5,-56(s0)
    1a5a:	00007797          	auipc	a5,0x7
    1a5e:	a6678793          	addi	a5,a5,-1434 # 84c0 <longjmp_1+0xb78>
    1a62:	fcf43823          	sd	a5,-48(s0)
    1a66:	fc043c23          	sd	zero,-40(s0)
    1a6a:	00007517          	auipc	a0,0x7
    1a6e:	a5e50513          	addi	a0,a0,-1442 # 84c8 <longjmp_1+0xb80>
    1a72:	00005097          	auipc	ra,0x5
    1a76:	656080e7          	jalr	1622(ra) # 70c8 <unlink>
    1a7a:	00005097          	auipc	ra,0x5
    1a7e:	5f6080e7          	jalr	1526(ra) # 7070 <fork>
    1a82:	87aa                	mv	a5,a0
    1a84:	fef42623          	sw	a5,-20(s0)
    1a88:	fec42783          	lw	a5,-20(s0)
    1a8c:	2781                	sext.w	a5,a5
    1a8e:	0207d163          	bgez	a5,1ab0 <exectest+0x6e>
    1a92:	fb843583          	ld	a1,-72(s0)
    1a96:	00006517          	auipc	a0,0x6
    1a9a:	61250513          	addi	a0,a0,1554 # 80a8 <longjmp_1+0x760>
    1a9e:	00006097          	auipc	ra,0x6
    1aa2:	b08080e7          	jalr	-1272(ra) # 75a6 <printf>
    1aa6:	4505                	li	a0,1
    1aa8:	00005097          	auipc	ra,0x5
    1aac:	5d0080e7          	jalr	1488(ra) # 7078 <exit>
    1ab0:	fec42783          	lw	a5,-20(s0)
    1ab4:	2781                	sext.w	a5,a5
    1ab6:	ebd5                	bnez	a5,1b6a <exectest+0x128>
    1ab8:	4505                	li	a0,1
    1aba:	00005097          	auipc	ra,0x5
    1abe:	5e6080e7          	jalr	1510(ra) # 70a0 <close>
    1ac2:	20100593          	li	a1,513
    1ac6:	00007517          	auipc	a0,0x7
    1aca:	a0250513          	addi	a0,a0,-1534 # 84c8 <longjmp_1+0xb80>
    1ace:	00005097          	auipc	ra,0x5
    1ad2:	5ea080e7          	jalr	1514(ra) # 70b8 <open>
    1ad6:	87aa                	mv	a5,a0
    1ad8:	fef42423          	sw	a5,-24(s0)
    1adc:	fe842783          	lw	a5,-24(s0)
    1ae0:	2781                	sext.w	a5,a5
    1ae2:	0207d163          	bgez	a5,1b04 <exectest+0xc2>
    1ae6:	fb843583          	ld	a1,-72(s0)
    1aea:	00007517          	auipc	a0,0x7
    1aee:	9e650513          	addi	a0,a0,-1562 # 84d0 <longjmp_1+0xb88>
    1af2:	00006097          	auipc	ra,0x6
    1af6:	ab4080e7          	jalr	-1356(ra) # 75a6 <printf>
    1afa:	4505                	li	a0,1
    1afc:	00005097          	auipc	ra,0x5
    1b00:	57c080e7          	jalr	1404(ra) # 7078 <exit>
    1b04:	fe842783          	lw	a5,-24(s0)
    1b08:	0007871b          	sext.w	a4,a5
    1b0c:	4785                	li	a5,1
    1b0e:	02f70163          	beq	a4,a5,1b30 <exectest+0xee>
    1b12:	fb843583          	ld	a1,-72(s0)
    1b16:	00007517          	auipc	a0,0x7
    1b1a:	9d250513          	addi	a0,a0,-1582 # 84e8 <longjmp_1+0xba0>
    1b1e:	00006097          	auipc	ra,0x6
    1b22:	a88080e7          	jalr	-1400(ra) # 75a6 <printf>
    1b26:	4505                	li	a0,1
    1b28:	00005097          	auipc	ra,0x5
    1b2c:	550080e7          	jalr	1360(ra) # 7078 <exit>
    1b30:	fc840793          	addi	a5,s0,-56
    1b34:	85be                	mv	a1,a5
    1b36:	00006517          	auipc	a0,0x6
    1b3a:	35a50513          	addi	a0,a0,858 # 7e90 <longjmp_1+0x548>
    1b3e:	00005097          	auipc	ra,0x5
    1b42:	572080e7          	jalr	1394(ra) # 70b0 <exec>
    1b46:	87aa                	mv	a5,a0
    1b48:	0207d163          	bgez	a5,1b6a <exectest+0x128>
    1b4c:	fb843583          	ld	a1,-72(s0)
    1b50:	00007517          	auipc	a0,0x7
    1b54:	9a850513          	addi	a0,a0,-1624 # 84f8 <longjmp_1+0xbb0>
    1b58:	00006097          	auipc	ra,0x6
    1b5c:	a4e080e7          	jalr	-1458(ra) # 75a6 <printf>
    1b60:	4505                	li	a0,1
    1b62:	00005097          	auipc	ra,0x5
    1b66:	516080e7          	jalr	1302(ra) # 7078 <exit>
    1b6a:	fe440793          	addi	a5,s0,-28
    1b6e:	853e                	mv	a0,a5
    1b70:	00005097          	auipc	ra,0x5
    1b74:	510080e7          	jalr	1296(ra) # 7080 <wait>
    1b78:	87aa                	mv	a5,a0
    1b7a:	873e                	mv	a4,a5
    1b7c:	fec42783          	lw	a5,-20(s0)
    1b80:	2781                	sext.w	a5,a5
    1b82:	00e78c63          	beq	a5,a4,1b9a <exectest+0x158>
    1b86:	fb843583          	ld	a1,-72(s0)
    1b8a:	00007517          	auipc	a0,0x7
    1b8e:	98650513          	addi	a0,a0,-1658 # 8510 <longjmp_1+0xbc8>
    1b92:	00006097          	auipc	ra,0x6
    1b96:	a14080e7          	jalr	-1516(ra) # 75a6 <printf>
    1b9a:	fe442783          	lw	a5,-28(s0)
    1b9e:	cb81                	beqz	a5,1bae <exectest+0x16c>
    1ba0:	fe442783          	lw	a5,-28(s0)
    1ba4:	853e                	mv	a0,a5
    1ba6:	00005097          	auipc	ra,0x5
    1baa:	4d2080e7          	jalr	1234(ra) # 7078 <exit>
    1bae:	4581                	li	a1,0
    1bb0:	00007517          	auipc	a0,0x7
    1bb4:	91850513          	addi	a0,a0,-1768 # 84c8 <longjmp_1+0xb80>
    1bb8:	00005097          	auipc	ra,0x5
    1bbc:	500080e7          	jalr	1280(ra) # 70b8 <open>
    1bc0:	87aa                	mv	a5,a0
    1bc2:	fef42423          	sw	a5,-24(s0)
    1bc6:	fe842783          	lw	a5,-24(s0)
    1bca:	2781                	sext.w	a5,a5
    1bcc:	0207d163          	bgez	a5,1bee <exectest+0x1ac>
    1bd0:	fb843583          	ld	a1,-72(s0)
    1bd4:	00006517          	auipc	a0,0x6
    1bd8:	4ec50513          	addi	a0,a0,1260 # 80c0 <longjmp_1+0x778>
    1bdc:	00006097          	auipc	ra,0x6
    1be0:	9ca080e7          	jalr	-1590(ra) # 75a6 <printf>
    1be4:	4505                	li	a0,1
    1be6:	00005097          	auipc	ra,0x5
    1bea:	492080e7          	jalr	1170(ra) # 7078 <exit>
    1bee:	fc040713          	addi	a4,s0,-64
    1bf2:	fe842783          	lw	a5,-24(s0)
    1bf6:	4609                	li	a2,2
    1bf8:	85ba                	mv	a1,a4
    1bfa:	853e                	mv	a0,a5
    1bfc:	00005097          	auipc	ra,0x5
    1c00:	494080e7          	jalr	1172(ra) # 7090 <read>
    1c04:	87aa                	mv	a5,a0
    1c06:	873e                	mv	a4,a5
    1c08:	4789                	li	a5,2
    1c0a:	02f70163          	beq	a4,a5,1c2c <exectest+0x1ea>
    1c0e:	fb843583          	ld	a1,-72(s0)
    1c12:	00006517          	auipc	a0,0x6
    1c16:	72e50513          	addi	a0,a0,1838 # 8340 <longjmp_1+0x9f8>
    1c1a:	00006097          	auipc	ra,0x6
    1c1e:	98c080e7          	jalr	-1652(ra) # 75a6 <printf>
    1c22:	4505                	li	a0,1
    1c24:	00005097          	auipc	ra,0x5
    1c28:	454080e7          	jalr	1108(ra) # 7078 <exit>
    1c2c:	00007517          	auipc	a0,0x7
    1c30:	89c50513          	addi	a0,a0,-1892 # 84c8 <longjmp_1+0xb80>
    1c34:	00005097          	auipc	ra,0x5
    1c38:	494080e7          	jalr	1172(ra) # 70c8 <unlink>
    1c3c:	fc044783          	lbu	a5,-64(s0)
    1c40:	873e                	mv	a4,a5
    1c42:	04f00793          	li	a5,79
    1c46:	00f71e63          	bne	a4,a5,1c62 <exectest+0x220>
    1c4a:	fc144783          	lbu	a5,-63(s0)
    1c4e:	873e                	mv	a4,a5
    1c50:	04b00793          	li	a5,75
    1c54:	00f71763          	bne	a4,a5,1c62 <exectest+0x220>
    1c58:	4501                	li	a0,0
    1c5a:	00005097          	auipc	ra,0x5
    1c5e:	41e080e7          	jalr	1054(ra) # 7078 <exit>
    1c62:	fb843583          	ld	a1,-72(s0)
    1c66:	00007517          	auipc	a0,0x7
    1c6a:	8c250513          	addi	a0,a0,-1854 # 8528 <longjmp_1+0xbe0>
    1c6e:	00006097          	auipc	ra,0x6
    1c72:	938080e7          	jalr	-1736(ra) # 75a6 <printf>
    1c76:	4505                	li	a0,1
    1c78:	00005097          	auipc	ra,0x5
    1c7c:	400080e7          	jalr	1024(ra) # 7078 <exit>

0000000000001c80 <pipe1>:
    1c80:	715d                	addi	sp,sp,-80
    1c82:	e486                	sd	ra,72(sp)
    1c84:	e0a2                	sd	s0,64(sp)
    1c86:	0880                	addi	s0,sp,80
    1c88:	faa43c23          	sd	a0,-72(s0)
    1c8c:	fd040793          	addi	a5,s0,-48
    1c90:	853e                	mv	a0,a5
    1c92:	00005097          	auipc	ra,0x5
    1c96:	3f6080e7          	jalr	1014(ra) # 7088 <pipe>
    1c9a:	87aa                	mv	a5,a0
    1c9c:	c385                	beqz	a5,1cbc <pipe1+0x3c>
    1c9e:	fb843583          	ld	a1,-72(s0)
    1ca2:	00007517          	auipc	a0,0x7
    1ca6:	89e50513          	addi	a0,a0,-1890 # 8540 <longjmp_1+0xbf8>
    1caa:	00006097          	auipc	ra,0x6
    1cae:	8fc080e7          	jalr	-1796(ra) # 75a6 <printf>
    1cb2:	4505                	li	a0,1
    1cb4:	00005097          	auipc	ra,0x5
    1cb8:	3c4080e7          	jalr	964(ra) # 7078 <exit>
    1cbc:	00005097          	auipc	ra,0x5
    1cc0:	3b4080e7          	jalr	948(ra) # 7070 <fork>
    1cc4:	87aa                	mv	a5,a0
    1cc6:	fcf42c23          	sw	a5,-40(s0)
    1cca:	fe042623          	sw	zero,-20(s0)
    1cce:	fd842783          	lw	a5,-40(s0)
    1cd2:	2781                	sext.w	a5,a5
    1cd4:	efdd                	bnez	a5,1d92 <pipe1+0x112>
    1cd6:	fd042783          	lw	a5,-48(s0)
    1cda:	853e                	mv	a0,a5
    1cdc:	00005097          	auipc	ra,0x5
    1ce0:	3c4080e7          	jalr	964(ra) # 70a0 <close>
    1ce4:	fe042223          	sw	zero,-28(s0)
    1ce8:	a849                	j	1d7a <pipe1+0xfa>
    1cea:	fe042423          	sw	zero,-24(s0)
    1cee:	a03d                	j	1d1c <pipe1+0x9c>
    1cf0:	fec42783          	lw	a5,-20(s0)
    1cf4:	0017871b          	addiw	a4,a5,1
    1cf8:	fee42623          	sw	a4,-20(s0)
    1cfc:	0ff7f713          	andi	a4,a5,255
    1d00:	00008697          	auipc	a3,0x8
    1d04:	3f868693          	addi	a3,a3,1016 # a0f8 <buf>
    1d08:	fe842783          	lw	a5,-24(s0)
    1d0c:	97b6                	add	a5,a5,a3
    1d0e:	00e78023          	sb	a4,0(a5)
    1d12:	fe842783          	lw	a5,-24(s0)
    1d16:	2785                	addiw	a5,a5,1
    1d18:	fef42423          	sw	a5,-24(s0)
    1d1c:	fe842783          	lw	a5,-24(s0)
    1d20:	0007871b          	sext.w	a4,a5
    1d24:	40800793          	li	a5,1032
    1d28:	fce7d4e3          	bge	a5,a4,1cf0 <pipe1+0x70>
    1d2c:	fd442783          	lw	a5,-44(s0)
    1d30:	40900613          	li	a2,1033
    1d34:	00008597          	auipc	a1,0x8
    1d38:	3c458593          	addi	a1,a1,964 # a0f8 <buf>
    1d3c:	853e                	mv	a0,a5
    1d3e:	00005097          	auipc	ra,0x5
    1d42:	35a080e7          	jalr	858(ra) # 7098 <write>
    1d46:	87aa                	mv	a5,a0
    1d48:	873e                	mv	a4,a5
    1d4a:	40900793          	li	a5,1033
    1d4e:	02f70163          	beq	a4,a5,1d70 <pipe1+0xf0>
    1d52:	fb843583          	ld	a1,-72(s0)
    1d56:	00007517          	auipc	a0,0x7
    1d5a:	80250513          	addi	a0,a0,-2046 # 8558 <longjmp_1+0xc10>
    1d5e:	00006097          	auipc	ra,0x6
    1d62:	848080e7          	jalr	-1976(ra) # 75a6 <printf>
    1d66:	4505                	li	a0,1
    1d68:	00005097          	auipc	ra,0x5
    1d6c:	310080e7          	jalr	784(ra) # 7078 <exit>
    1d70:	fe442783          	lw	a5,-28(s0)
    1d74:	2785                	addiw	a5,a5,1
    1d76:	fef42223          	sw	a5,-28(s0)
    1d7a:	fe442783          	lw	a5,-28(s0)
    1d7e:	0007871b          	sext.w	a4,a5
    1d82:	4791                	li	a5,4
    1d84:	f6e7d3e3          	bge	a5,a4,1cea <pipe1+0x6a>
    1d88:	4501                	li	a0,0
    1d8a:	00005097          	auipc	ra,0x5
    1d8e:	2ee080e7          	jalr	750(ra) # 7078 <exit>
    1d92:	fd842783          	lw	a5,-40(s0)
    1d96:	2781                	sext.w	a5,a5
    1d98:	12f05b63          	blez	a5,1ece <pipe1+0x24e>
    1d9c:	fd442783          	lw	a5,-44(s0)
    1da0:	853e                	mv	a0,a5
    1da2:	00005097          	auipc	ra,0x5
    1da6:	2fe080e7          	jalr	766(ra) # 70a0 <close>
    1daa:	fc042e23          	sw	zero,-36(s0)
    1dae:	4785                	li	a5,1
    1db0:	fef42023          	sw	a5,-32(s0)
    1db4:	a849                	j	1e46 <pipe1+0x1c6>
    1db6:	fe042423          	sw	zero,-24(s0)
    1dba:	a881                	j	1e0a <pipe1+0x18a>
    1dbc:	00008717          	auipc	a4,0x8
    1dc0:	33c70713          	addi	a4,a4,828 # a0f8 <buf>
    1dc4:	fe842783          	lw	a5,-24(s0)
    1dc8:	97ba                	add	a5,a5,a4
    1dca:	0007c783          	lbu	a5,0(a5)
    1dce:	0007869b          	sext.w	a3,a5
    1dd2:	fec42783          	lw	a5,-20(s0)
    1dd6:	0017871b          	addiw	a4,a5,1
    1dda:	fee42623          	sw	a4,-20(s0)
    1dde:	0ff7f793          	andi	a5,a5,255
    1de2:	2781                	sext.w	a5,a5
    1de4:	8736                	mv	a4,a3
    1de6:	00f70d63          	beq	a4,a5,1e00 <pipe1+0x180>
    1dea:	fb843583          	ld	a1,-72(s0)
    1dee:	00006517          	auipc	a0,0x6
    1df2:	78250513          	addi	a0,a0,1922 # 8570 <longjmp_1+0xc28>
    1df6:	00005097          	auipc	ra,0x5
    1dfa:	7b0080e7          	jalr	1968(ra) # 75a6 <printf>
    1dfe:	a0fd                	j	1eec <pipe1+0x26c>
    1e00:	fe842783          	lw	a5,-24(s0)
    1e04:	2785                	addiw	a5,a5,1
    1e06:	fef42423          	sw	a5,-24(s0)
    1e0a:	fe842703          	lw	a4,-24(s0)
    1e0e:	fe442783          	lw	a5,-28(s0)
    1e12:	2701                	sext.w	a4,a4
    1e14:	2781                	sext.w	a5,a5
    1e16:	faf743e3          	blt	a4,a5,1dbc <pipe1+0x13c>
    1e1a:	fdc42703          	lw	a4,-36(s0)
    1e1e:	fe442783          	lw	a5,-28(s0)
    1e22:	9fb9                	addw	a5,a5,a4
    1e24:	fcf42e23          	sw	a5,-36(s0)
    1e28:	fe042783          	lw	a5,-32(s0)
    1e2c:	0017979b          	slliw	a5,a5,0x1
    1e30:	fef42023          	sw	a5,-32(s0)
    1e34:	fe042783          	lw	a5,-32(s0)
    1e38:	873e                	mv	a4,a5
    1e3a:	678d                	lui	a5,0x3
    1e3c:	00e7f563          	bgeu	a5,a4,1e46 <pipe1+0x1c6>
    1e40:	678d                	lui	a5,0x3
    1e42:	fef42023          	sw	a5,-32(s0)
    1e46:	fd042783          	lw	a5,-48(s0)
    1e4a:	fe042703          	lw	a4,-32(s0)
    1e4e:	863a                	mv	a2,a4
    1e50:	00008597          	auipc	a1,0x8
    1e54:	2a858593          	addi	a1,a1,680 # a0f8 <buf>
    1e58:	853e                	mv	a0,a5
    1e5a:	00005097          	auipc	ra,0x5
    1e5e:	236080e7          	jalr	566(ra) # 7090 <read>
    1e62:	87aa                	mv	a5,a0
    1e64:	fef42223          	sw	a5,-28(s0)
    1e68:	fe442783          	lw	a5,-28(s0)
    1e6c:	2781                	sext.w	a5,a5
    1e6e:	f4f044e3          	bgtz	a5,1db6 <pipe1+0x136>
    1e72:	fdc42783          	lw	a5,-36(s0)
    1e76:	0007871b          	sext.w	a4,a5
    1e7a:	6785                	lui	a5,0x1
    1e7c:	42d78793          	addi	a5,a5,1069 # 142d <opentest+0x67>
    1e80:	02f70263          	beq	a4,a5,1ea4 <pipe1+0x224>
    1e84:	fdc42783          	lw	a5,-36(s0)
    1e88:	85be                	mv	a1,a5
    1e8a:	00006517          	auipc	a0,0x6
    1e8e:	6fe50513          	addi	a0,a0,1790 # 8588 <longjmp_1+0xc40>
    1e92:	00005097          	auipc	ra,0x5
    1e96:	714080e7          	jalr	1812(ra) # 75a6 <printf>
    1e9a:	4505                	li	a0,1
    1e9c:	00005097          	auipc	ra,0x5
    1ea0:	1dc080e7          	jalr	476(ra) # 7078 <exit>
    1ea4:	fd042783          	lw	a5,-48(s0)
    1ea8:	853e                	mv	a0,a5
    1eaa:	00005097          	auipc	ra,0x5
    1eae:	1f6080e7          	jalr	502(ra) # 70a0 <close>
    1eb2:	fcc40793          	addi	a5,s0,-52
    1eb6:	853e                	mv	a0,a5
    1eb8:	00005097          	auipc	ra,0x5
    1ebc:	1c8080e7          	jalr	456(ra) # 7080 <wait>
    1ec0:	fcc42783          	lw	a5,-52(s0)
    1ec4:	853e                	mv	a0,a5
    1ec6:	00005097          	auipc	ra,0x5
    1eca:	1b2080e7          	jalr	434(ra) # 7078 <exit>
    1ece:	fb843583          	ld	a1,-72(s0)
    1ed2:	00006517          	auipc	a0,0x6
    1ed6:	6d650513          	addi	a0,a0,1750 # 85a8 <longjmp_1+0xc60>
    1eda:	00005097          	auipc	ra,0x5
    1ede:	6cc080e7          	jalr	1740(ra) # 75a6 <printf>
    1ee2:	4505                	li	a0,1
    1ee4:	00005097          	auipc	ra,0x5
    1ee8:	194080e7          	jalr	404(ra) # 7078 <exit>
    1eec:	60a6                	ld	ra,72(sp)
    1eee:	6406                	ld	s0,64(sp)
    1ef0:	6161                	addi	sp,sp,80
    1ef2:	8082                	ret

0000000000001ef4 <preempt>:
    1ef4:	7139                	addi	sp,sp,-64
    1ef6:	fc06                	sd	ra,56(sp)
    1ef8:	f822                	sd	s0,48(sp)
    1efa:	0080                	addi	s0,sp,64
    1efc:	fca43423          	sd	a0,-56(s0)
    1f00:	00005097          	auipc	ra,0x5
    1f04:	170080e7          	jalr	368(ra) # 7070 <fork>
    1f08:	87aa                	mv	a5,a0
    1f0a:	fef42623          	sw	a5,-20(s0)
    1f0e:	fec42783          	lw	a5,-20(s0)
    1f12:	2781                	sext.w	a5,a5
    1f14:	0207d163          	bgez	a5,1f36 <preempt+0x42>
    1f18:	fc843583          	ld	a1,-56(s0)
    1f1c:	00006517          	auipc	a0,0x6
    1f20:	6a450513          	addi	a0,a0,1700 # 85c0 <longjmp_1+0xc78>
    1f24:	00005097          	auipc	ra,0x5
    1f28:	682080e7          	jalr	1666(ra) # 75a6 <printf>
    1f2c:	4505                	li	a0,1
    1f2e:	00005097          	auipc	ra,0x5
    1f32:	14a080e7          	jalr	330(ra) # 7078 <exit>
    1f36:	fec42783          	lw	a5,-20(s0)
    1f3a:	2781                	sext.w	a5,a5
    1f3c:	e391                	bnez	a5,1f40 <preempt+0x4c>
    1f3e:	a001                	j	1f3e <preempt+0x4a>
    1f40:	00005097          	auipc	ra,0x5
    1f44:	130080e7          	jalr	304(ra) # 7070 <fork>
    1f48:	87aa                	mv	a5,a0
    1f4a:	fef42423          	sw	a5,-24(s0)
    1f4e:	fe842783          	lw	a5,-24(s0)
    1f52:	2781                	sext.w	a5,a5
    1f54:	0207d163          	bgez	a5,1f76 <preempt+0x82>
    1f58:	fc843583          	ld	a1,-56(s0)
    1f5c:	00006517          	auipc	a0,0x6
    1f60:	14c50513          	addi	a0,a0,332 # 80a8 <longjmp_1+0x760>
    1f64:	00005097          	auipc	ra,0x5
    1f68:	642080e7          	jalr	1602(ra) # 75a6 <printf>
    1f6c:	4505                	li	a0,1
    1f6e:	00005097          	auipc	ra,0x5
    1f72:	10a080e7          	jalr	266(ra) # 7078 <exit>
    1f76:	fe842783          	lw	a5,-24(s0)
    1f7a:	2781                	sext.w	a5,a5
    1f7c:	e391                	bnez	a5,1f80 <preempt+0x8c>
    1f7e:	a001                	j	1f7e <preempt+0x8a>
    1f80:	fd840793          	addi	a5,s0,-40
    1f84:	853e                	mv	a0,a5
    1f86:	00005097          	auipc	ra,0x5
    1f8a:	102080e7          	jalr	258(ra) # 7088 <pipe>
    1f8e:	00005097          	auipc	ra,0x5
    1f92:	0e2080e7          	jalr	226(ra) # 7070 <fork>
    1f96:	87aa                	mv	a5,a0
    1f98:	fef42223          	sw	a5,-28(s0)
    1f9c:	fe442783          	lw	a5,-28(s0)
    1fa0:	2781                	sext.w	a5,a5
    1fa2:	0207d163          	bgez	a5,1fc4 <preempt+0xd0>
    1fa6:	fc843583          	ld	a1,-56(s0)
    1faa:	00006517          	auipc	a0,0x6
    1fae:	0fe50513          	addi	a0,a0,254 # 80a8 <longjmp_1+0x760>
    1fb2:	00005097          	auipc	ra,0x5
    1fb6:	5f4080e7          	jalr	1524(ra) # 75a6 <printf>
    1fba:	4505                	li	a0,1
    1fbc:	00005097          	auipc	ra,0x5
    1fc0:	0bc080e7          	jalr	188(ra) # 7078 <exit>
    1fc4:	fe442783          	lw	a5,-28(s0)
    1fc8:	2781                	sext.w	a5,a5
    1fca:	ebb9                	bnez	a5,2020 <preempt+0x12c>
    1fcc:	fd842783          	lw	a5,-40(s0)
    1fd0:	853e                	mv	a0,a5
    1fd2:	00005097          	auipc	ra,0x5
    1fd6:	0ce080e7          	jalr	206(ra) # 70a0 <close>
    1fda:	fdc42783          	lw	a5,-36(s0)
    1fde:	4605                	li	a2,1
    1fe0:	00006597          	auipc	a1,0x6
    1fe4:	da058593          	addi	a1,a1,-608 # 7d80 <longjmp_1+0x438>
    1fe8:	853e                	mv	a0,a5
    1fea:	00005097          	auipc	ra,0x5
    1fee:	0ae080e7          	jalr	174(ra) # 7098 <write>
    1ff2:	87aa                	mv	a5,a0
    1ff4:	873e                	mv	a4,a5
    1ff6:	4785                	li	a5,1
    1ff8:	00f70c63          	beq	a4,a5,2010 <preempt+0x11c>
    1ffc:	fc843583          	ld	a1,-56(s0)
    2000:	00006517          	auipc	a0,0x6
    2004:	5d050513          	addi	a0,a0,1488 # 85d0 <longjmp_1+0xc88>
    2008:	00005097          	auipc	ra,0x5
    200c:	59e080e7          	jalr	1438(ra) # 75a6 <printf>
    2010:	fdc42783          	lw	a5,-36(s0)
    2014:	853e                	mv	a0,a5
    2016:	00005097          	auipc	ra,0x5
    201a:	08a080e7          	jalr	138(ra) # 70a0 <close>
    201e:	a001                	j	201e <preempt+0x12a>
    2020:	fdc42783          	lw	a5,-36(s0)
    2024:	853e                	mv	a0,a5
    2026:	00005097          	auipc	ra,0x5
    202a:	07a080e7          	jalr	122(ra) # 70a0 <close>
    202e:	fd842783          	lw	a5,-40(s0)
    2032:	660d                	lui	a2,0x3
    2034:	00008597          	auipc	a1,0x8
    2038:	0c458593          	addi	a1,a1,196 # a0f8 <buf>
    203c:	853e                	mv	a0,a5
    203e:	00005097          	auipc	ra,0x5
    2042:	052080e7          	jalr	82(ra) # 7090 <read>
    2046:	87aa                	mv	a5,a0
    2048:	873e                	mv	a4,a5
    204a:	4785                	li	a5,1
    204c:	00f70d63          	beq	a4,a5,2066 <preempt+0x172>
    2050:	fc843583          	ld	a1,-56(s0)
    2054:	00006517          	auipc	a0,0x6
    2058:	59450513          	addi	a0,a0,1428 # 85e8 <longjmp_1+0xca0>
    205c:	00005097          	auipc	ra,0x5
    2060:	54a080e7          	jalr	1354(ra) # 75a6 <printf>
    2064:	a8a5                	j	20dc <preempt+0x1e8>
    2066:	fd842783          	lw	a5,-40(s0)
    206a:	853e                	mv	a0,a5
    206c:	00005097          	auipc	ra,0x5
    2070:	034080e7          	jalr	52(ra) # 70a0 <close>
    2074:	00006517          	auipc	a0,0x6
    2078:	58c50513          	addi	a0,a0,1420 # 8600 <longjmp_1+0xcb8>
    207c:	00005097          	auipc	ra,0x5
    2080:	52a080e7          	jalr	1322(ra) # 75a6 <printf>
    2084:	fec42783          	lw	a5,-20(s0)
    2088:	853e                	mv	a0,a5
    208a:	00005097          	auipc	ra,0x5
    208e:	01e080e7          	jalr	30(ra) # 70a8 <kill>
    2092:	fe842783          	lw	a5,-24(s0)
    2096:	853e                	mv	a0,a5
    2098:	00005097          	auipc	ra,0x5
    209c:	010080e7          	jalr	16(ra) # 70a8 <kill>
    20a0:	fe442783          	lw	a5,-28(s0)
    20a4:	853e                	mv	a0,a5
    20a6:	00005097          	auipc	ra,0x5
    20aa:	002080e7          	jalr	2(ra) # 70a8 <kill>
    20ae:	00006517          	auipc	a0,0x6
    20b2:	56250513          	addi	a0,a0,1378 # 8610 <longjmp_1+0xcc8>
    20b6:	00005097          	auipc	ra,0x5
    20ba:	4f0080e7          	jalr	1264(ra) # 75a6 <printf>
    20be:	4501                	li	a0,0
    20c0:	00005097          	auipc	ra,0x5
    20c4:	fc0080e7          	jalr	-64(ra) # 7080 <wait>
    20c8:	4501                	li	a0,0
    20ca:	00005097          	auipc	ra,0x5
    20ce:	fb6080e7          	jalr	-74(ra) # 7080 <wait>
    20d2:	4501                	li	a0,0
    20d4:	00005097          	auipc	ra,0x5
    20d8:	fac080e7          	jalr	-84(ra) # 7080 <wait>
    20dc:	70e2                	ld	ra,56(sp)
    20de:	7442                	ld	s0,48(sp)
    20e0:	6121                	addi	sp,sp,64
    20e2:	8082                	ret

00000000000020e4 <exitwait>:
    20e4:	7179                	addi	sp,sp,-48
    20e6:	f406                	sd	ra,40(sp)
    20e8:	f022                	sd	s0,32(sp)
    20ea:	1800                	addi	s0,sp,48
    20ec:	fca43c23          	sd	a0,-40(s0)
    20f0:	fe042623          	sw	zero,-20(s0)
    20f4:	a87d                	j	21b2 <exitwait+0xce>
    20f6:	00005097          	auipc	ra,0x5
    20fa:	f7a080e7          	jalr	-134(ra) # 7070 <fork>
    20fe:	87aa                	mv	a5,a0
    2100:	fef42423          	sw	a5,-24(s0)
    2104:	fe842783          	lw	a5,-24(s0)
    2108:	2781                	sext.w	a5,a5
    210a:	0207d163          	bgez	a5,212c <exitwait+0x48>
    210e:	fd843583          	ld	a1,-40(s0)
    2112:	00006517          	auipc	a0,0x6
    2116:	f9650513          	addi	a0,a0,-106 # 80a8 <longjmp_1+0x760>
    211a:	00005097          	auipc	ra,0x5
    211e:	48c080e7          	jalr	1164(ra) # 75a6 <printf>
    2122:	4505                	li	a0,1
    2124:	00005097          	auipc	ra,0x5
    2128:	f54080e7          	jalr	-172(ra) # 7078 <exit>
    212c:	fe842783          	lw	a5,-24(s0)
    2130:	2781                	sext.w	a5,a5
    2132:	c7a5                	beqz	a5,219a <exitwait+0xb6>
    2134:	fe440793          	addi	a5,s0,-28
    2138:	853e                	mv	a0,a5
    213a:	00005097          	auipc	ra,0x5
    213e:	f46080e7          	jalr	-186(ra) # 7080 <wait>
    2142:	87aa                	mv	a5,a0
    2144:	873e                	mv	a4,a5
    2146:	fe842783          	lw	a5,-24(s0)
    214a:	2781                	sext.w	a5,a5
    214c:	02e78163          	beq	a5,a4,216e <exitwait+0x8a>
    2150:	fd843583          	ld	a1,-40(s0)
    2154:	00006517          	auipc	a0,0x6
    2158:	4cc50513          	addi	a0,a0,1228 # 8620 <longjmp_1+0xcd8>
    215c:	00005097          	auipc	ra,0x5
    2160:	44a080e7          	jalr	1098(ra) # 75a6 <printf>
    2164:	4505                	li	a0,1
    2166:	00005097          	auipc	ra,0x5
    216a:	f12080e7          	jalr	-238(ra) # 7078 <exit>
    216e:	fe442703          	lw	a4,-28(s0)
    2172:	fec42783          	lw	a5,-20(s0)
    2176:	2781                	sext.w	a5,a5
    2178:	02e78863          	beq	a5,a4,21a8 <exitwait+0xc4>
    217c:	fd843583          	ld	a1,-40(s0)
    2180:	00006517          	auipc	a0,0x6
    2184:	4b850513          	addi	a0,a0,1208 # 8638 <longjmp_1+0xcf0>
    2188:	00005097          	auipc	ra,0x5
    218c:	41e080e7          	jalr	1054(ra) # 75a6 <printf>
    2190:	4505                	li	a0,1
    2192:	00005097          	auipc	ra,0x5
    2196:	ee6080e7          	jalr	-282(ra) # 7078 <exit>
    219a:	fec42783          	lw	a5,-20(s0)
    219e:	853e                	mv	a0,a5
    21a0:	00005097          	auipc	ra,0x5
    21a4:	ed8080e7          	jalr	-296(ra) # 7078 <exit>
    21a8:	fec42783          	lw	a5,-20(s0)
    21ac:	2785                	addiw	a5,a5,1
    21ae:	fef42623          	sw	a5,-20(s0)
    21b2:	fec42783          	lw	a5,-20(s0)
    21b6:	0007871b          	sext.w	a4,a5
    21ba:	06300793          	li	a5,99
    21be:	f2e7dce3          	bge	a5,a4,20f6 <exitwait+0x12>
    21c2:	0001                	nop
    21c4:	0001                	nop
    21c6:	70a2                	ld	ra,40(sp)
    21c8:	7402                	ld	s0,32(sp)
    21ca:	6145                	addi	sp,sp,48
    21cc:	8082                	ret

00000000000021ce <reparent>:
    21ce:	7179                	addi	sp,sp,-48
    21d0:	f406                	sd	ra,40(sp)
    21d2:	f022                	sd	s0,32(sp)
    21d4:	1800                	addi	s0,sp,48
    21d6:	fca43c23          	sd	a0,-40(s0)
    21da:	00005097          	auipc	ra,0x5
    21de:	f1e080e7          	jalr	-226(ra) # 70f8 <getpid>
    21e2:	87aa                	mv	a5,a0
    21e4:	fef42423          	sw	a5,-24(s0)
    21e8:	fe042623          	sw	zero,-20(s0)
    21ec:	a86d                	j	22a6 <reparent+0xd8>
    21ee:	00005097          	auipc	ra,0x5
    21f2:	e82080e7          	jalr	-382(ra) # 7070 <fork>
    21f6:	87aa                	mv	a5,a0
    21f8:	fef42223          	sw	a5,-28(s0)
    21fc:	fe442783          	lw	a5,-28(s0)
    2200:	2781                	sext.w	a5,a5
    2202:	0207d163          	bgez	a5,2224 <reparent+0x56>
    2206:	fd843583          	ld	a1,-40(s0)
    220a:	00006517          	auipc	a0,0x6
    220e:	e9e50513          	addi	a0,a0,-354 # 80a8 <longjmp_1+0x760>
    2212:	00005097          	auipc	ra,0x5
    2216:	394080e7          	jalr	916(ra) # 75a6 <printf>
    221a:	4505                	li	a0,1
    221c:	00005097          	auipc	ra,0x5
    2220:	e5c080e7          	jalr	-420(ra) # 7078 <exit>
    2224:	fe442783          	lw	a5,-28(s0)
    2228:	2781                	sext.w	a5,a5
    222a:	cf85                	beqz	a5,2262 <reparent+0x94>
    222c:	4501                	li	a0,0
    222e:	00005097          	auipc	ra,0x5
    2232:	e52080e7          	jalr	-430(ra) # 7080 <wait>
    2236:	87aa                	mv	a5,a0
    2238:	873e                	mv	a4,a5
    223a:	fe442783          	lw	a5,-28(s0)
    223e:	2781                	sext.w	a5,a5
    2240:	04e78e63          	beq	a5,a4,229c <reparent+0xce>
    2244:	fd843583          	ld	a1,-40(s0)
    2248:	00006517          	auipc	a0,0x6
    224c:	3d850513          	addi	a0,a0,984 # 8620 <longjmp_1+0xcd8>
    2250:	00005097          	auipc	ra,0x5
    2254:	356080e7          	jalr	854(ra) # 75a6 <printf>
    2258:	4505                	li	a0,1
    225a:	00005097          	auipc	ra,0x5
    225e:	e1e080e7          	jalr	-482(ra) # 7078 <exit>
    2262:	00005097          	auipc	ra,0x5
    2266:	e0e080e7          	jalr	-498(ra) # 7070 <fork>
    226a:	87aa                	mv	a5,a0
    226c:	fef42023          	sw	a5,-32(s0)
    2270:	fe042783          	lw	a5,-32(s0)
    2274:	2781                	sext.w	a5,a5
    2276:	0007de63          	bgez	a5,2292 <reparent+0xc4>
    227a:	fe842783          	lw	a5,-24(s0)
    227e:	853e                	mv	a0,a5
    2280:	00005097          	auipc	ra,0x5
    2284:	e28080e7          	jalr	-472(ra) # 70a8 <kill>
    2288:	4505                	li	a0,1
    228a:	00005097          	auipc	ra,0x5
    228e:	dee080e7          	jalr	-530(ra) # 7078 <exit>
    2292:	4501                	li	a0,0
    2294:	00005097          	auipc	ra,0x5
    2298:	de4080e7          	jalr	-540(ra) # 7078 <exit>
    229c:	fec42783          	lw	a5,-20(s0)
    22a0:	2785                	addiw	a5,a5,1
    22a2:	fef42623          	sw	a5,-20(s0)
    22a6:	fec42783          	lw	a5,-20(s0)
    22aa:	0007871b          	sext.w	a4,a5
    22ae:	0c700793          	li	a5,199
    22b2:	f2e7dee3          	bge	a5,a4,21ee <reparent+0x20>
    22b6:	4501                	li	a0,0
    22b8:	00005097          	auipc	ra,0x5
    22bc:	dc0080e7          	jalr	-576(ra) # 7078 <exit>

00000000000022c0 <twochildren>:
    22c0:	7179                	addi	sp,sp,-48
    22c2:	f406                	sd	ra,40(sp)
    22c4:	f022                	sd	s0,32(sp)
    22c6:	1800                	addi	s0,sp,48
    22c8:	fca43c23          	sd	a0,-40(s0)
    22cc:	fe042623          	sw	zero,-20(s0)
    22d0:	a845                	j	2380 <twochildren+0xc0>
    22d2:	00005097          	auipc	ra,0x5
    22d6:	d9e080e7          	jalr	-610(ra) # 7070 <fork>
    22da:	87aa                	mv	a5,a0
    22dc:	fef42423          	sw	a5,-24(s0)
    22e0:	fe842783          	lw	a5,-24(s0)
    22e4:	2781                	sext.w	a5,a5
    22e6:	0207d163          	bgez	a5,2308 <twochildren+0x48>
    22ea:	fd843583          	ld	a1,-40(s0)
    22ee:	00006517          	auipc	a0,0x6
    22f2:	dba50513          	addi	a0,a0,-582 # 80a8 <longjmp_1+0x760>
    22f6:	00005097          	auipc	ra,0x5
    22fa:	2b0080e7          	jalr	688(ra) # 75a6 <printf>
    22fe:	4505                	li	a0,1
    2300:	00005097          	auipc	ra,0x5
    2304:	d78080e7          	jalr	-648(ra) # 7078 <exit>
    2308:	fe842783          	lw	a5,-24(s0)
    230c:	2781                	sext.w	a5,a5
    230e:	e791                	bnez	a5,231a <twochildren+0x5a>
    2310:	4501                	li	a0,0
    2312:	00005097          	auipc	ra,0x5
    2316:	d66080e7          	jalr	-666(ra) # 7078 <exit>
    231a:	00005097          	auipc	ra,0x5
    231e:	d56080e7          	jalr	-682(ra) # 7070 <fork>
    2322:	87aa                	mv	a5,a0
    2324:	fef42223          	sw	a5,-28(s0)
    2328:	fe442783          	lw	a5,-28(s0)
    232c:	2781                	sext.w	a5,a5
    232e:	0207d163          	bgez	a5,2350 <twochildren+0x90>
    2332:	fd843583          	ld	a1,-40(s0)
    2336:	00006517          	auipc	a0,0x6
    233a:	d7250513          	addi	a0,a0,-654 # 80a8 <longjmp_1+0x760>
    233e:	00005097          	auipc	ra,0x5
    2342:	268080e7          	jalr	616(ra) # 75a6 <printf>
    2346:	4505                	li	a0,1
    2348:	00005097          	auipc	ra,0x5
    234c:	d30080e7          	jalr	-720(ra) # 7078 <exit>
    2350:	fe442783          	lw	a5,-28(s0)
    2354:	2781                	sext.w	a5,a5
    2356:	e791                	bnez	a5,2362 <twochildren+0xa2>
    2358:	4501                	li	a0,0
    235a:	00005097          	auipc	ra,0x5
    235e:	d1e080e7          	jalr	-738(ra) # 7078 <exit>
    2362:	4501                	li	a0,0
    2364:	00005097          	auipc	ra,0x5
    2368:	d1c080e7          	jalr	-740(ra) # 7080 <wait>
    236c:	4501                	li	a0,0
    236e:	00005097          	auipc	ra,0x5
    2372:	d12080e7          	jalr	-750(ra) # 7080 <wait>
    2376:	fec42783          	lw	a5,-20(s0)
    237a:	2785                	addiw	a5,a5,1
    237c:	fef42623          	sw	a5,-20(s0)
    2380:	fec42783          	lw	a5,-20(s0)
    2384:	0007871b          	sext.w	a4,a5
    2388:	3e700793          	li	a5,999
    238c:	f4e7d3e3          	bge	a5,a4,22d2 <twochildren+0x12>
    2390:	0001                	nop
    2392:	0001                	nop
    2394:	70a2                	ld	ra,40(sp)
    2396:	7402                	ld	s0,32(sp)
    2398:	6145                	addi	sp,sp,48
    239a:	8082                	ret

000000000000239c <forkfork>:
    239c:	7139                	addi	sp,sp,-64
    239e:	fc06                	sd	ra,56(sp)
    23a0:	f822                	sd	s0,48(sp)
    23a2:	0080                	addi	s0,sp,64
    23a4:	fca43423          	sd	a0,-56(s0)
    23a8:	fe042623          	sw	zero,-20(s0)
    23ac:	a84d                	j	245e <forkfork+0xc2>
    23ae:	00005097          	auipc	ra,0x5
    23b2:	cc2080e7          	jalr	-830(ra) # 7070 <fork>
    23b6:	87aa                	mv	a5,a0
    23b8:	fef42023          	sw	a5,-32(s0)
    23bc:	fe042783          	lw	a5,-32(s0)
    23c0:	2781                	sext.w	a5,a5
    23c2:	0207d163          	bgez	a5,23e4 <forkfork+0x48>
    23c6:	fc843583          	ld	a1,-56(s0)
    23ca:	00006517          	auipc	a0,0x6
    23ce:	1f650513          	addi	a0,a0,502 # 85c0 <longjmp_1+0xc78>
    23d2:	00005097          	auipc	ra,0x5
    23d6:	1d4080e7          	jalr	468(ra) # 75a6 <printf>
    23da:	4505                	li	a0,1
    23dc:	00005097          	auipc	ra,0x5
    23e0:	c9c080e7          	jalr	-868(ra) # 7078 <exit>
    23e4:	fe042783          	lw	a5,-32(s0)
    23e8:	2781                	sext.w	a5,a5
    23ea:	e7ad                	bnez	a5,2454 <forkfork+0xb8>
    23ec:	fe042423          	sw	zero,-24(s0)
    23f0:	a0a9                	j	243a <forkfork+0x9e>
    23f2:	00005097          	auipc	ra,0x5
    23f6:	c7e080e7          	jalr	-898(ra) # 7070 <fork>
    23fa:	87aa                	mv	a5,a0
    23fc:	fcf42e23          	sw	a5,-36(s0)
    2400:	fdc42783          	lw	a5,-36(s0)
    2404:	2781                	sext.w	a5,a5
    2406:	0007d763          	bgez	a5,2414 <forkfork+0x78>
    240a:	4505                	li	a0,1
    240c:	00005097          	auipc	ra,0x5
    2410:	c6c080e7          	jalr	-916(ra) # 7078 <exit>
    2414:	fdc42783          	lw	a5,-36(s0)
    2418:	2781                	sext.w	a5,a5
    241a:	e791                	bnez	a5,2426 <forkfork+0x8a>
    241c:	4501                	li	a0,0
    241e:	00005097          	auipc	ra,0x5
    2422:	c5a080e7          	jalr	-934(ra) # 7078 <exit>
    2426:	4501                	li	a0,0
    2428:	00005097          	auipc	ra,0x5
    242c:	c58080e7          	jalr	-936(ra) # 7080 <wait>
    2430:	fe842783          	lw	a5,-24(s0)
    2434:	2785                	addiw	a5,a5,1
    2436:	fef42423          	sw	a5,-24(s0)
    243a:	fe842783          	lw	a5,-24(s0)
    243e:	0007871b          	sext.w	a4,a5
    2442:	0c700793          	li	a5,199
    2446:	fae7d6e3          	bge	a5,a4,23f2 <forkfork+0x56>
    244a:	4501                	li	a0,0
    244c:	00005097          	auipc	ra,0x5
    2450:	c2c080e7          	jalr	-980(ra) # 7078 <exit>
    2454:	fec42783          	lw	a5,-20(s0)
    2458:	2785                	addiw	a5,a5,1
    245a:	fef42623          	sw	a5,-20(s0)
    245e:	fec42783          	lw	a5,-20(s0)
    2462:	0007871b          	sext.w	a4,a5
    2466:	4785                	li	a5,1
    2468:	f4e7d3e3          	bge	a5,a4,23ae <forkfork+0x12>
    246c:	fe042223          	sw	zero,-28(s0)
    2470:	a83d                	j	24ae <forkfork+0x112>
    2472:	fd840793          	addi	a5,s0,-40
    2476:	853e                	mv	a0,a5
    2478:	00005097          	auipc	ra,0x5
    247c:	c08080e7          	jalr	-1016(ra) # 7080 <wait>
    2480:	fd842783          	lw	a5,-40(s0)
    2484:	c385                	beqz	a5,24a4 <forkfork+0x108>
    2486:	fc843583          	ld	a1,-56(s0)
    248a:	00006517          	auipc	a0,0x6
    248e:	1ce50513          	addi	a0,a0,462 # 8658 <longjmp_1+0xd10>
    2492:	00005097          	auipc	ra,0x5
    2496:	114080e7          	jalr	276(ra) # 75a6 <printf>
    249a:	4505                	li	a0,1
    249c:	00005097          	auipc	ra,0x5
    24a0:	bdc080e7          	jalr	-1060(ra) # 7078 <exit>
    24a4:	fe442783          	lw	a5,-28(s0)
    24a8:	2785                	addiw	a5,a5,1
    24aa:	fef42223          	sw	a5,-28(s0)
    24ae:	fe442783          	lw	a5,-28(s0)
    24b2:	0007871b          	sext.w	a4,a5
    24b6:	4785                	li	a5,1
    24b8:	fae7dde3          	bge	a5,a4,2472 <forkfork+0xd6>
    24bc:	0001                	nop
    24be:	0001                	nop
    24c0:	70e2                	ld	ra,56(sp)
    24c2:	7442                	ld	s0,48(sp)
    24c4:	6121                	addi	sp,sp,64
    24c6:	8082                	ret

00000000000024c8 <forkforkfork>:
    24c8:	7179                	addi	sp,sp,-48
    24ca:	f406                	sd	ra,40(sp)
    24cc:	f022                	sd	s0,32(sp)
    24ce:	1800                	addi	s0,sp,48
    24d0:	fca43c23          	sd	a0,-40(s0)
    24d4:	00006517          	auipc	a0,0x6
    24d8:	1a450513          	addi	a0,a0,420 # 8678 <longjmp_1+0xd30>
    24dc:	00005097          	auipc	ra,0x5
    24e0:	bec080e7          	jalr	-1044(ra) # 70c8 <unlink>
    24e4:	00005097          	auipc	ra,0x5
    24e8:	b8c080e7          	jalr	-1140(ra) # 7070 <fork>
    24ec:	87aa                	mv	a5,a0
    24ee:	fef42623          	sw	a5,-20(s0)
    24f2:	fec42783          	lw	a5,-20(s0)
    24f6:	2781                	sext.w	a5,a5
    24f8:	0207d163          	bgez	a5,251a <forkforkfork+0x52>
    24fc:	fd843583          	ld	a1,-40(s0)
    2500:	00006517          	auipc	a0,0x6
    2504:	0c050513          	addi	a0,a0,192 # 85c0 <longjmp_1+0xc78>
    2508:	00005097          	auipc	ra,0x5
    250c:	09e080e7          	jalr	158(ra) # 75a6 <printf>
    2510:	4505                	li	a0,1
    2512:	00005097          	auipc	ra,0x5
    2516:	b66080e7          	jalr	-1178(ra) # 7078 <exit>
    251a:	fec42783          	lw	a5,-20(s0)
    251e:	2781                	sext.w	a5,a5
    2520:	efb9                	bnez	a5,257e <forkforkfork+0xb6>
    2522:	4581                	li	a1,0
    2524:	00006517          	auipc	a0,0x6
    2528:	15450513          	addi	a0,a0,340 # 8678 <longjmp_1+0xd30>
    252c:	00005097          	auipc	ra,0x5
    2530:	b8c080e7          	jalr	-1140(ra) # 70b8 <open>
    2534:	87aa                	mv	a5,a0
    2536:	fef42423          	sw	a5,-24(s0)
    253a:	fe842783          	lw	a5,-24(s0)
    253e:	2781                	sext.w	a5,a5
    2540:	0007c763          	bltz	a5,254e <forkforkfork+0x86>
    2544:	4501                	li	a0,0
    2546:	00005097          	auipc	ra,0x5
    254a:	b32080e7          	jalr	-1230(ra) # 7078 <exit>
    254e:	00005097          	auipc	ra,0x5
    2552:	b22080e7          	jalr	-1246(ra) # 7070 <fork>
    2556:	87aa                	mv	a5,a0
    2558:	fc07d5e3          	bgez	a5,2522 <forkforkfork+0x5a>
    255c:	20200593          	li	a1,514
    2560:	00006517          	auipc	a0,0x6
    2564:	11850513          	addi	a0,a0,280 # 8678 <longjmp_1+0xd30>
    2568:	00005097          	auipc	ra,0x5
    256c:	b50080e7          	jalr	-1200(ra) # 70b8 <open>
    2570:	87aa                	mv	a5,a0
    2572:	853e                	mv	a0,a5
    2574:	00005097          	auipc	ra,0x5
    2578:	b2c080e7          	jalr	-1236(ra) # 70a0 <close>
    257c:	b75d                	j	2522 <forkforkfork+0x5a>
    257e:	4551                	li	a0,20
    2580:	00005097          	auipc	ra,0x5
    2584:	b88080e7          	jalr	-1144(ra) # 7108 <sleep>
    2588:	20200593          	li	a1,514
    258c:	00006517          	auipc	a0,0x6
    2590:	0ec50513          	addi	a0,a0,236 # 8678 <longjmp_1+0xd30>
    2594:	00005097          	auipc	ra,0x5
    2598:	b24080e7          	jalr	-1244(ra) # 70b8 <open>
    259c:	87aa                	mv	a5,a0
    259e:	853e                	mv	a0,a5
    25a0:	00005097          	auipc	ra,0x5
    25a4:	b00080e7          	jalr	-1280(ra) # 70a0 <close>
    25a8:	4501                	li	a0,0
    25aa:	00005097          	auipc	ra,0x5
    25ae:	ad6080e7          	jalr	-1322(ra) # 7080 <wait>
    25b2:	4529                	li	a0,10
    25b4:	00005097          	auipc	ra,0x5
    25b8:	b54080e7          	jalr	-1196(ra) # 7108 <sleep>
    25bc:	0001                	nop
    25be:	70a2                	ld	ra,40(sp)
    25c0:	7402                	ld	s0,32(sp)
    25c2:	6145                	addi	sp,sp,48
    25c4:	8082                	ret

00000000000025c6 <reparent2>:
    25c6:	7179                	addi	sp,sp,-48
    25c8:	f406                	sd	ra,40(sp)
    25ca:	f022                	sd	s0,32(sp)
    25cc:	1800                	addi	s0,sp,48
    25ce:	fca43c23          	sd	a0,-40(s0)
    25d2:	fe042623          	sw	zero,-20(s0)
    25d6:	a0ad                	j	2640 <reparent2+0x7a>
    25d8:	00005097          	auipc	ra,0x5
    25dc:	a98080e7          	jalr	-1384(ra) # 7070 <fork>
    25e0:	87aa                	mv	a5,a0
    25e2:	fef42423          	sw	a5,-24(s0)
    25e6:	fe842783          	lw	a5,-24(s0)
    25ea:	2781                	sext.w	a5,a5
    25ec:	0007df63          	bgez	a5,260a <reparent2+0x44>
    25f0:	00006517          	auipc	a0,0x6
    25f4:	89050513          	addi	a0,a0,-1904 # 7e80 <longjmp_1+0x538>
    25f8:	00005097          	auipc	ra,0x5
    25fc:	fae080e7          	jalr	-82(ra) # 75a6 <printf>
    2600:	4505                	li	a0,1
    2602:	00005097          	auipc	ra,0x5
    2606:	a76080e7          	jalr	-1418(ra) # 7078 <exit>
    260a:	fe842783          	lw	a5,-24(s0)
    260e:	2781                	sext.w	a5,a5
    2610:	ef91                	bnez	a5,262c <reparent2+0x66>
    2612:	00005097          	auipc	ra,0x5
    2616:	a5e080e7          	jalr	-1442(ra) # 7070 <fork>
    261a:	00005097          	auipc	ra,0x5
    261e:	a56080e7          	jalr	-1450(ra) # 7070 <fork>
    2622:	4501                	li	a0,0
    2624:	00005097          	auipc	ra,0x5
    2628:	a54080e7          	jalr	-1452(ra) # 7078 <exit>
    262c:	4501                	li	a0,0
    262e:	00005097          	auipc	ra,0x5
    2632:	a52080e7          	jalr	-1454(ra) # 7080 <wait>
    2636:	fec42783          	lw	a5,-20(s0)
    263a:	2785                	addiw	a5,a5,1
    263c:	fef42623          	sw	a5,-20(s0)
    2640:	fec42783          	lw	a5,-20(s0)
    2644:	0007871b          	sext.w	a4,a5
    2648:	31f00793          	li	a5,799
    264c:	f8e7d6e3          	bge	a5,a4,25d8 <reparent2+0x12>
    2650:	4501                	li	a0,0
    2652:	00005097          	auipc	ra,0x5
    2656:	a26080e7          	jalr	-1498(ra) # 7078 <exit>

000000000000265a <mem>:
    265a:	7139                	addi	sp,sp,-64
    265c:	fc06                	sd	ra,56(sp)
    265e:	f822                	sd	s0,48(sp)
    2660:	0080                	addi	s0,sp,64
    2662:	fca43423          	sd	a0,-56(s0)
    2666:	00005097          	auipc	ra,0x5
    266a:	a0a080e7          	jalr	-1526(ra) # 7070 <fork>
    266e:	87aa                	mv	a5,a0
    2670:	fef42223          	sw	a5,-28(s0)
    2674:	fe442783          	lw	a5,-28(s0)
    2678:	2781                	sext.w	a5,a5
    267a:	e3c5                	bnez	a5,271a <mem+0xc0>
    267c:	fe043423          	sd	zero,-24(s0)
    2680:	a811                	j	2694 <mem+0x3a>
    2682:	fd843783          	ld	a5,-40(s0)
    2686:	fe843703          	ld	a4,-24(s0)
    268a:	e398                	sd	a4,0(a5)
    268c:	fd843783          	ld	a5,-40(s0)
    2690:	fef43423          	sd	a5,-24(s0)
    2694:	6789                	lui	a5,0x2
    2696:	71178513          	addi	a0,a5,1809 # 2711 <mem+0xb7>
    269a:	00005097          	auipc	ra,0x5
    269e:	0fe080e7          	jalr	254(ra) # 7798 <malloc>
    26a2:	fca43c23          	sd	a0,-40(s0)
    26a6:	fd843783          	ld	a5,-40(s0)
    26aa:	ffe1                	bnez	a5,2682 <mem+0x28>
    26ac:	a005                	j	26cc <mem+0x72>
    26ae:	fe843783          	ld	a5,-24(s0)
    26b2:	639c                	ld	a5,0(a5)
    26b4:	fcf43c23          	sd	a5,-40(s0)
    26b8:	fe843503          	ld	a0,-24(s0)
    26bc:	00005097          	auipc	ra,0x5
    26c0:	f3a080e7          	jalr	-198(ra) # 75f6 <free>
    26c4:	fd843783          	ld	a5,-40(s0)
    26c8:	fef43423          	sd	a5,-24(s0)
    26cc:	fe843783          	ld	a5,-24(s0)
    26d0:	fff9                	bnez	a5,26ae <mem+0x54>
    26d2:	6515                	lui	a0,0x5
    26d4:	00005097          	auipc	ra,0x5
    26d8:	0c4080e7          	jalr	196(ra) # 7798 <malloc>
    26dc:	fea43423          	sd	a0,-24(s0)
    26e0:	fe843783          	ld	a5,-24(s0)
    26e4:	e385                	bnez	a5,2704 <mem+0xaa>
    26e6:	fc843583          	ld	a1,-56(s0)
    26ea:	00006517          	auipc	a0,0x6
    26ee:	f9e50513          	addi	a0,a0,-98 # 8688 <longjmp_1+0xd40>
    26f2:	00005097          	auipc	ra,0x5
    26f6:	eb4080e7          	jalr	-332(ra) # 75a6 <printf>
    26fa:	4505                	li	a0,1
    26fc:	00005097          	auipc	ra,0x5
    2700:	97c080e7          	jalr	-1668(ra) # 7078 <exit>
    2704:	fe843503          	ld	a0,-24(s0)
    2708:	00005097          	auipc	ra,0x5
    270c:	eee080e7          	jalr	-274(ra) # 75f6 <free>
    2710:	4501                	li	a0,0
    2712:	00005097          	auipc	ra,0x5
    2716:	966080e7          	jalr	-1690(ra) # 7078 <exit>
    271a:	fd440793          	addi	a5,s0,-44
    271e:	853e                	mv	a0,a5
    2720:	00005097          	auipc	ra,0x5
    2724:	960080e7          	jalr	-1696(ra) # 7080 <wait>
    2728:	fd442783          	lw	a5,-44(s0)
    272c:	873e                	mv	a4,a5
    272e:	57fd                	li	a5,-1
    2730:	00f71763          	bne	a4,a5,273e <mem+0xe4>
    2734:	4501                	li	a0,0
    2736:	00005097          	auipc	ra,0x5
    273a:	942080e7          	jalr	-1726(ra) # 7078 <exit>
    273e:	fd442783          	lw	a5,-44(s0)
    2742:	853e                	mv	a0,a5
    2744:	00005097          	auipc	ra,0x5
    2748:	934080e7          	jalr	-1740(ra) # 7078 <exit>

000000000000274c <sharedfd>:
    274c:	715d                	addi	sp,sp,-80
    274e:	e486                	sd	ra,72(sp)
    2750:	e0a2                	sd	s0,64(sp)
    2752:	0880                	addi	s0,sp,80
    2754:	faa43c23          	sd	a0,-72(s0)
    2758:	00005517          	auipc	a0,0x5
    275c:	39050513          	addi	a0,a0,912 # 7ae8 <longjmp_1+0x1a0>
    2760:	00005097          	auipc	ra,0x5
    2764:	968080e7          	jalr	-1688(ra) # 70c8 <unlink>
    2768:	20200593          	li	a1,514
    276c:	00005517          	auipc	a0,0x5
    2770:	37c50513          	addi	a0,a0,892 # 7ae8 <longjmp_1+0x1a0>
    2774:	00005097          	auipc	ra,0x5
    2778:	944080e7          	jalr	-1724(ra) # 70b8 <open>
    277c:	87aa                	mv	a5,a0
    277e:	fef42023          	sw	a5,-32(s0)
    2782:	fe042783          	lw	a5,-32(s0)
    2786:	2781                	sext.w	a5,a5
    2788:	0207d163          	bgez	a5,27aa <sharedfd+0x5e>
    278c:	fb843583          	ld	a1,-72(s0)
    2790:	00006517          	auipc	a0,0x6
    2794:	f1850513          	addi	a0,a0,-232 # 86a8 <longjmp_1+0xd60>
    2798:	00005097          	auipc	ra,0x5
    279c:	e0e080e7          	jalr	-498(ra) # 75a6 <printf>
    27a0:	4505                	li	a0,1
    27a2:	00005097          	auipc	ra,0x5
    27a6:	8d6080e7          	jalr	-1834(ra) # 7078 <exit>
    27aa:	00005097          	auipc	ra,0x5
    27ae:	8c6080e7          	jalr	-1850(ra) # 7070 <fork>
    27b2:	87aa                	mv	a5,a0
    27b4:	fcf42e23          	sw	a5,-36(s0)
    27b8:	fdc42783          	lw	a5,-36(s0)
    27bc:	2781                	sext.w	a5,a5
    27be:	e781                	bnez	a5,27c6 <sharedfd+0x7a>
    27c0:	06300793          	li	a5,99
    27c4:	a019                	j	27ca <sharedfd+0x7e>
    27c6:	07000793          	li	a5,112
    27ca:	fc840713          	addi	a4,s0,-56
    27ce:	4629                	li	a2,10
    27d0:	85be                	mv	a1,a5
    27d2:	853a                	mv	a0,a4
    27d4:	00004097          	auipc	ra,0x4
    27d8:	4fa080e7          	jalr	1274(ra) # 6cce <memset>
    27dc:	fe042623          	sw	zero,-20(s0)
    27e0:	a0a9                	j	282a <sharedfd+0xde>
    27e2:	fc840713          	addi	a4,s0,-56
    27e6:	fe042783          	lw	a5,-32(s0)
    27ea:	4629                	li	a2,10
    27ec:	85ba                	mv	a1,a4
    27ee:	853e                	mv	a0,a5
    27f0:	00005097          	auipc	ra,0x5
    27f4:	8a8080e7          	jalr	-1880(ra) # 7098 <write>
    27f8:	87aa                	mv	a5,a0
    27fa:	873e                	mv	a4,a5
    27fc:	47a9                	li	a5,10
    27fe:	02f70163          	beq	a4,a5,2820 <sharedfd+0xd4>
    2802:	fb843583          	ld	a1,-72(s0)
    2806:	00006517          	auipc	a0,0x6
    280a:	eca50513          	addi	a0,a0,-310 # 86d0 <longjmp_1+0xd88>
    280e:	00005097          	auipc	ra,0x5
    2812:	d98080e7          	jalr	-616(ra) # 75a6 <printf>
    2816:	4505                	li	a0,1
    2818:	00005097          	auipc	ra,0x5
    281c:	860080e7          	jalr	-1952(ra) # 7078 <exit>
    2820:	fec42783          	lw	a5,-20(s0)
    2824:	2785                	addiw	a5,a5,1
    2826:	fef42623          	sw	a5,-20(s0)
    282a:	fec42783          	lw	a5,-20(s0)
    282e:	0007871b          	sext.w	a4,a5
    2832:	3e700793          	li	a5,999
    2836:	fae7d6e3          	bge	a5,a4,27e2 <sharedfd+0x96>
    283a:	fdc42783          	lw	a5,-36(s0)
    283e:	2781                	sext.w	a5,a5
    2840:	e791                	bnez	a5,284c <sharedfd+0x100>
    2842:	4501                	li	a0,0
    2844:	00005097          	auipc	ra,0x5
    2848:	834080e7          	jalr	-1996(ra) # 7078 <exit>
    284c:	fc440793          	addi	a5,s0,-60
    2850:	853e                	mv	a0,a5
    2852:	00005097          	auipc	ra,0x5
    2856:	82e080e7          	jalr	-2002(ra) # 7080 <wait>
    285a:	fc442783          	lw	a5,-60(s0)
    285e:	cb81                	beqz	a5,286e <sharedfd+0x122>
    2860:	fc442783          	lw	a5,-60(s0)
    2864:	853e                	mv	a0,a5
    2866:	00005097          	auipc	ra,0x5
    286a:	812080e7          	jalr	-2030(ra) # 7078 <exit>
    286e:	fe042783          	lw	a5,-32(s0)
    2872:	853e                	mv	a0,a5
    2874:	00005097          	auipc	ra,0x5
    2878:	82c080e7          	jalr	-2004(ra) # 70a0 <close>
    287c:	4581                	li	a1,0
    287e:	00005517          	auipc	a0,0x5
    2882:	26a50513          	addi	a0,a0,618 # 7ae8 <longjmp_1+0x1a0>
    2886:	00005097          	auipc	ra,0x5
    288a:	832080e7          	jalr	-1998(ra) # 70b8 <open>
    288e:	87aa                	mv	a5,a0
    2890:	fef42023          	sw	a5,-32(s0)
    2894:	fe042783          	lw	a5,-32(s0)
    2898:	2781                	sext.w	a5,a5
    289a:	0207d163          	bgez	a5,28bc <sharedfd+0x170>
    289e:	fb843583          	ld	a1,-72(s0)
    28a2:	00006517          	auipc	a0,0x6
    28a6:	e4e50513          	addi	a0,a0,-434 # 86f0 <longjmp_1+0xda8>
    28aa:	00005097          	auipc	ra,0x5
    28ae:	cfc080e7          	jalr	-772(ra) # 75a6 <printf>
    28b2:	4505                	li	a0,1
    28b4:	00004097          	auipc	ra,0x4
    28b8:	7c4080e7          	jalr	1988(ra) # 7078 <exit>
    28bc:	fe042223          	sw	zero,-28(s0)
    28c0:	fe442783          	lw	a5,-28(s0)
    28c4:	fef42423          	sw	a5,-24(s0)
    28c8:	a08d                	j	292a <sharedfd+0x1de>
    28ca:	fe042623          	sw	zero,-20(s0)
    28ce:	a881                	j	291e <sharedfd+0x1d2>
    28d0:	fec42783          	lw	a5,-20(s0)
    28d4:	ff040713          	addi	a4,s0,-16
    28d8:	97ba                	add	a5,a5,a4
    28da:	fd87c783          	lbu	a5,-40(a5)
    28de:	873e                	mv	a4,a5
    28e0:	06300793          	li	a5,99
    28e4:	00f71763          	bne	a4,a5,28f2 <sharedfd+0x1a6>
    28e8:	fe842783          	lw	a5,-24(s0)
    28ec:	2785                	addiw	a5,a5,1
    28ee:	fef42423          	sw	a5,-24(s0)
    28f2:	fec42783          	lw	a5,-20(s0)
    28f6:	ff040713          	addi	a4,s0,-16
    28fa:	97ba                	add	a5,a5,a4
    28fc:	fd87c783          	lbu	a5,-40(a5)
    2900:	873e                	mv	a4,a5
    2902:	07000793          	li	a5,112
    2906:	00f71763          	bne	a4,a5,2914 <sharedfd+0x1c8>
    290a:	fe442783          	lw	a5,-28(s0)
    290e:	2785                	addiw	a5,a5,1
    2910:	fef42223          	sw	a5,-28(s0)
    2914:	fec42783          	lw	a5,-20(s0)
    2918:	2785                	addiw	a5,a5,1
    291a:	fef42623          	sw	a5,-20(s0)
    291e:	fec42783          	lw	a5,-20(s0)
    2922:	873e                	mv	a4,a5
    2924:	47a5                	li	a5,9
    2926:	fae7f5e3          	bgeu	a5,a4,28d0 <sharedfd+0x184>
    292a:	fc840713          	addi	a4,s0,-56
    292e:	fe042783          	lw	a5,-32(s0)
    2932:	4629                	li	a2,10
    2934:	85ba                	mv	a1,a4
    2936:	853e                	mv	a0,a5
    2938:	00004097          	auipc	ra,0x4
    293c:	758080e7          	jalr	1880(ra) # 7090 <read>
    2940:	87aa                	mv	a5,a0
    2942:	fcf42c23          	sw	a5,-40(s0)
    2946:	fd842783          	lw	a5,-40(s0)
    294a:	2781                	sext.w	a5,a5
    294c:	f6f04fe3          	bgtz	a5,28ca <sharedfd+0x17e>
    2950:	fe042783          	lw	a5,-32(s0)
    2954:	853e                	mv	a0,a5
    2956:	00004097          	auipc	ra,0x4
    295a:	74a080e7          	jalr	1866(ra) # 70a0 <close>
    295e:	00005517          	auipc	a0,0x5
    2962:	18a50513          	addi	a0,a0,394 # 7ae8 <longjmp_1+0x1a0>
    2966:	00004097          	auipc	ra,0x4
    296a:	762080e7          	jalr	1890(ra) # 70c8 <unlink>
    296e:	fe842783          	lw	a5,-24(s0)
    2972:	0007871b          	sext.w	a4,a5
    2976:	6789                	lui	a5,0x2
    2978:	71078793          	addi	a5,a5,1808 # 2710 <mem+0xb6>
    297c:	02f71063          	bne	a4,a5,299c <sharedfd+0x250>
    2980:	fe442783          	lw	a5,-28(s0)
    2984:	0007871b          	sext.w	a4,a5
    2988:	6789                	lui	a5,0x2
    298a:	71078793          	addi	a5,a5,1808 # 2710 <mem+0xb6>
    298e:	00f71763          	bne	a4,a5,299c <sharedfd+0x250>
    2992:	4501                	li	a0,0
    2994:	00004097          	auipc	ra,0x4
    2998:	6e4080e7          	jalr	1764(ra) # 7078 <exit>
    299c:	fb843583          	ld	a1,-72(s0)
    29a0:	00006517          	auipc	a0,0x6
    29a4:	d7850513          	addi	a0,a0,-648 # 8718 <longjmp_1+0xdd0>
    29a8:	00005097          	auipc	ra,0x5
    29ac:	bfe080e7          	jalr	-1026(ra) # 75a6 <printf>
    29b0:	4505                	li	a0,1
    29b2:	00004097          	auipc	ra,0x4
    29b6:	6c6080e7          	jalr	1734(ra) # 7078 <exit>

00000000000029ba <fourfiles>:
    29ba:	7159                	addi	sp,sp,-112
    29bc:	f486                	sd	ra,104(sp)
    29be:	f0a2                	sd	s0,96(sp)
    29c0:	1880                	addi	s0,sp,112
    29c2:	f8a43c23          	sd	a0,-104(s0)
    29c6:	00006797          	auipc	a5,0x6
    29ca:	dba78793          	addi	a5,a5,-582 # 8780 <longjmp_1+0xe38>
    29ce:	6390                	ld	a2,0(a5)
    29d0:	6794                	ld	a3,8(a5)
    29d2:	6b98                	ld	a4,16(a5)
    29d4:	6f9c                	ld	a5,24(a5)
    29d6:	fac43423          	sd	a2,-88(s0)
    29da:	fad43823          	sd	a3,-80(s0)
    29de:	fae43c23          	sd	a4,-72(s0)
    29e2:	fcf43023          	sd	a5,-64(s0)
    29e6:	fe042023          	sw	zero,-32(s0)
    29ea:	a281                	j	2b2a <fourfiles+0x170>
    29ec:	fe042783          	lw	a5,-32(s0)
    29f0:	078e                	slli	a5,a5,0x3
    29f2:	ff040713          	addi	a4,s0,-16
    29f6:	97ba                	add	a5,a5,a4
    29f8:	fb87b783          	ld	a5,-72(a5)
    29fc:	fcf43c23          	sd	a5,-40(s0)
    2a00:	fd843503          	ld	a0,-40(s0)
    2a04:	00004097          	auipc	ra,0x4
    2a08:	6c4080e7          	jalr	1732(ra) # 70c8 <unlink>
    2a0c:	00004097          	auipc	ra,0x4
    2a10:	664080e7          	jalr	1636(ra) # 7070 <fork>
    2a14:	87aa                	mv	a5,a0
    2a16:	fcf42623          	sw	a5,-52(s0)
    2a1a:	fcc42783          	lw	a5,-52(s0)
    2a1e:	2781                	sext.w	a5,a5
    2a20:	0207d163          	bgez	a5,2a42 <fourfiles+0x88>
    2a24:	f9843583          	ld	a1,-104(s0)
    2a28:	00005517          	auipc	a0,0x5
    2a2c:	45850513          	addi	a0,a0,1112 # 7e80 <longjmp_1+0x538>
    2a30:	00005097          	auipc	ra,0x5
    2a34:	b76080e7          	jalr	-1162(ra) # 75a6 <printf>
    2a38:	4505                	li	a0,1
    2a3a:	00004097          	auipc	ra,0x4
    2a3e:	63e080e7          	jalr	1598(ra) # 7078 <exit>
    2a42:	fcc42783          	lw	a5,-52(s0)
    2a46:	2781                	sext.w	a5,a5
    2a48:	efe1                	bnez	a5,2b20 <fourfiles+0x166>
    2a4a:	20200593          	li	a1,514
    2a4e:	fd843503          	ld	a0,-40(s0)
    2a52:	00004097          	auipc	ra,0x4
    2a56:	666080e7          	jalr	1638(ra) # 70b8 <open>
    2a5a:	87aa                	mv	a5,a0
    2a5c:	fcf42a23          	sw	a5,-44(s0)
    2a60:	fd442783          	lw	a5,-44(s0)
    2a64:	2781                	sext.w	a5,a5
    2a66:	0207d163          	bgez	a5,2a88 <fourfiles+0xce>
    2a6a:	f9843583          	ld	a1,-104(s0)
    2a6e:	00006517          	auipc	a0,0x6
    2a72:	cc250513          	addi	a0,a0,-830 # 8730 <longjmp_1+0xde8>
    2a76:	00005097          	auipc	ra,0x5
    2a7a:	b30080e7          	jalr	-1232(ra) # 75a6 <printf>
    2a7e:	4505                	li	a0,1
    2a80:	00004097          	auipc	ra,0x4
    2a84:	5f8080e7          	jalr	1528(ra) # 7078 <exit>
    2a88:	fe042783          	lw	a5,-32(s0)
    2a8c:	0307879b          	addiw	a5,a5,48
    2a90:	2781                	sext.w	a5,a5
    2a92:	1f400613          	li	a2,500
    2a96:	85be                	mv	a1,a5
    2a98:	00007517          	auipc	a0,0x7
    2a9c:	66050513          	addi	a0,a0,1632 # a0f8 <buf>
    2aa0:	00004097          	auipc	ra,0x4
    2aa4:	22e080e7          	jalr	558(ra) # 6cce <memset>
    2aa8:	fe042623          	sw	zero,-20(s0)
    2aac:	a8b1                	j	2b08 <fourfiles+0x14e>
    2aae:	fd442783          	lw	a5,-44(s0)
    2ab2:	1f400613          	li	a2,500
    2ab6:	00007597          	auipc	a1,0x7
    2aba:	64258593          	addi	a1,a1,1602 # a0f8 <buf>
    2abe:	853e                	mv	a0,a5
    2ac0:	00004097          	auipc	ra,0x4
    2ac4:	5d8080e7          	jalr	1496(ra) # 7098 <write>
    2ac8:	87aa                	mv	a5,a0
    2aca:	fcf42823          	sw	a5,-48(s0)
    2ace:	fd042783          	lw	a5,-48(s0)
    2ad2:	0007871b          	sext.w	a4,a5
    2ad6:	1f400793          	li	a5,500
    2ada:	02f70263          	beq	a4,a5,2afe <fourfiles+0x144>
    2ade:	fd042783          	lw	a5,-48(s0)
    2ae2:	85be                	mv	a1,a5
    2ae4:	00006517          	auipc	a0,0x6
    2ae8:	c5c50513          	addi	a0,a0,-932 # 8740 <longjmp_1+0xdf8>
    2aec:	00005097          	auipc	ra,0x5
    2af0:	aba080e7          	jalr	-1350(ra) # 75a6 <printf>
    2af4:	4505                	li	a0,1
    2af6:	00004097          	auipc	ra,0x4
    2afa:	582080e7          	jalr	1410(ra) # 7078 <exit>
    2afe:	fec42783          	lw	a5,-20(s0)
    2b02:	2785                	addiw	a5,a5,1
    2b04:	fef42623          	sw	a5,-20(s0)
    2b08:	fec42783          	lw	a5,-20(s0)
    2b0c:	0007871b          	sext.w	a4,a5
    2b10:	47ad                	li	a5,11
    2b12:	f8e7dee3          	bge	a5,a4,2aae <fourfiles+0xf4>
    2b16:	4501                	li	a0,0
    2b18:	00004097          	auipc	ra,0x4
    2b1c:	560080e7          	jalr	1376(ra) # 7078 <exit>
    2b20:	fe042783          	lw	a5,-32(s0)
    2b24:	2785                	addiw	a5,a5,1
    2b26:	fef42023          	sw	a5,-32(s0)
    2b2a:	fe042783          	lw	a5,-32(s0)
    2b2e:	0007871b          	sext.w	a4,a5
    2b32:	478d                	li	a5,3
    2b34:	eae7dce3          	bge	a5,a4,29ec <fourfiles+0x32>
    2b38:	fe042023          	sw	zero,-32(s0)
    2b3c:	a03d                	j	2b6a <fourfiles+0x1b0>
    2b3e:	fa440793          	addi	a5,s0,-92
    2b42:	853e                	mv	a0,a5
    2b44:	00004097          	auipc	ra,0x4
    2b48:	53c080e7          	jalr	1340(ra) # 7080 <wait>
    2b4c:	fa442783          	lw	a5,-92(s0)
    2b50:	cb81                	beqz	a5,2b60 <fourfiles+0x1a6>
    2b52:	fa442783          	lw	a5,-92(s0)
    2b56:	853e                	mv	a0,a5
    2b58:	00004097          	auipc	ra,0x4
    2b5c:	520080e7          	jalr	1312(ra) # 7078 <exit>
    2b60:	fe042783          	lw	a5,-32(s0)
    2b64:	2785                	addiw	a5,a5,1
    2b66:	fef42023          	sw	a5,-32(s0)
    2b6a:	fe042783          	lw	a5,-32(s0)
    2b6e:	0007871b          	sext.w	a4,a5
    2b72:	478d                	li	a5,3
    2b74:	fce7d5e3          	bge	a5,a4,2b3e <fourfiles+0x184>
    2b78:	fe042623          	sw	zero,-20(s0)
    2b7c:	aa39                	j	2c9a <fourfiles+0x2e0>
    2b7e:	fec42783          	lw	a5,-20(s0)
    2b82:	078e                	slli	a5,a5,0x3
    2b84:	ff040713          	addi	a4,s0,-16
    2b88:	97ba                	add	a5,a5,a4
    2b8a:	fb87b783          	ld	a5,-72(a5)
    2b8e:	fcf43c23          	sd	a5,-40(s0)
    2b92:	4581                	li	a1,0
    2b94:	fd843503          	ld	a0,-40(s0)
    2b98:	00004097          	auipc	ra,0x4
    2b9c:	520080e7          	jalr	1312(ra) # 70b8 <open>
    2ba0:	87aa                	mv	a5,a0
    2ba2:	fcf42a23          	sw	a5,-44(s0)
    2ba6:	fe042223          	sw	zero,-28(s0)
    2baa:	a88d                	j	2c1c <fourfiles+0x262>
    2bac:	fe042423          	sw	zero,-24(s0)
    2bb0:	a0b9                	j	2bfe <fourfiles+0x244>
    2bb2:	00007717          	auipc	a4,0x7
    2bb6:	54670713          	addi	a4,a4,1350 # a0f8 <buf>
    2bba:	fe842783          	lw	a5,-24(s0)
    2bbe:	97ba                	add	a5,a5,a4
    2bc0:	0007c783          	lbu	a5,0(a5)
    2bc4:	0007871b          	sext.w	a4,a5
    2bc8:	fec42783          	lw	a5,-20(s0)
    2bcc:	0307879b          	addiw	a5,a5,48
    2bd0:	2781                	sext.w	a5,a5
    2bd2:	02f70163          	beq	a4,a5,2bf4 <fourfiles+0x23a>
    2bd6:	f9843583          	ld	a1,-104(s0)
    2bda:	00006517          	auipc	a0,0x6
    2bde:	b7e50513          	addi	a0,a0,-1154 # 8758 <longjmp_1+0xe10>
    2be2:	00005097          	auipc	ra,0x5
    2be6:	9c4080e7          	jalr	-1596(ra) # 75a6 <printf>
    2bea:	4505                	li	a0,1
    2bec:	00004097          	auipc	ra,0x4
    2bf0:	48c080e7          	jalr	1164(ra) # 7078 <exit>
    2bf4:	fe842783          	lw	a5,-24(s0)
    2bf8:	2785                	addiw	a5,a5,1
    2bfa:	fef42423          	sw	a5,-24(s0)
    2bfe:	fe842703          	lw	a4,-24(s0)
    2c02:	fd042783          	lw	a5,-48(s0)
    2c06:	2701                	sext.w	a4,a4
    2c08:	2781                	sext.w	a5,a5
    2c0a:	faf744e3          	blt	a4,a5,2bb2 <fourfiles+0x1f8>
    2c0e:	fe442703          	lw	a4,-28(s0)
    2c12:	fd042783          	lw	a5,-48(s0)
    2c16:	9fb9                	addw	a5,a5,a4
    2c18:	fef42223          	sw	a5,-28(s0)
    2c1c:	fd442783          	lw	a5,-44(s0)
    2c20:	660d                	lui	a2,0x3
    2c22:	00007597          	auipc	a1,0x7
    2c26:	4d658593          	addi	a1,a1,1238 # a0f8 <buf>
    2c2a:	853e                	mv	a0,a5
    2c2c:	00004097          	auipc	ra,0x4
    2c30:	464080e7          	jalr	1124(ra) # 7090 <read>
    2c34:	87aa                	mv	a5,a0
    2c36:	fcf42823          	sw	a5,-48(s0)
    2c3a:	fd042783          	lw	a5,-48(s0)
    2c3e:	2781                	sext.w	a5,a5
    2c40:	f6f046e3          	bgtz	a5,2bac <fourfiles+0x1f2>
    2c44:	fd442783          	lw	a5,-44(s0)
    2c48:	853e                	mv	a0,a5
    2c4a:	00004097          	auipc	ra,0x4
    2c4e:	456080e7          	jalr	1110(ra) # 70a0 <close>
    2c52:	fe442783          	lw	a5,-28(s0)
    2c56:	0007871b          	sext.w	a4,a5
    2c5a:	6785                	lui	a5,0x1
    2c5c:	77078793          	addi	a5,a5,1904 # 1770 <writebig+0x124>
    2c60:	02f70263          	beq	a4,a5,2c84 <fourfiles+0x2ca>
    2c64:	fe442783          	lw	a5,-28(s0)
    2c68:	85be                	mv	a1,a5
    2c6a:	00006517          	auipc	a0,0x6
    2c6e:	afe50513          	addi	a0,a0,-1282 # 8768 <longjmp_1+0xe20>
    2c72:	00005097          	auipc	ra,0x5
    2c76:	934080e7          	jalr	-1740(ra) # 75a6 <printf>
    2c7a:	4505                	li	a0,1
    2c7c:	00004097          	auipc	ra,0x4
    2c80:	3fc080e7          	jalr	1020(ra) # 7078 <exit>
    2c84:	fd843503          	ld	a0,-40(s0)
    2c88:	00004097          	auipc	ra,0x4
    2c8c:	440080e7          	jalr	1088(ra) # 70c8 <unlink>
    2c90:	fec42783          	lw	a5,-20(s0)
    2c94:	2785                	addiw	a5,a5,1
    2c96:	fef42623          	sw	a5,-20(s0)
    2c9a:	fec42783          	lw	a5,-20(s0)
    2c9e:	0007871b          	sext.w	a4,a5
    2ca2:	478d                	li	a5,3
    2ca4:	ece7dde3          	bge	a5,a4,2b7e <fourfiles+0x1c4>
    2ca8:	0001                	nop
    2caa:	0001                	nop
    2cac:	70a6                	ld	ra,104(sp)
    2cae:	7406                	ld	s0,96(sp)
    2cb0:	6165                	addi	sp,sp,112
    2cb2:	8082                	ret

0000000000002cb4 <createdelete>:
    2cb4:	711d                	addi	sp,sp,-96
    2cb6:	ec86                	sd	ra,88(sp)
    2cb8:	e8a2                	sd	s0,80(sp)
    2cba:	1080                	addi	s0,sp,96
    2cbc:	faa43423          	sd	a0,-88(s0)
    2cc0:	fe042423          	sw	zero,-24(s0)
    2cc4:	aa91                	j	2e18 <createdelete+0x164>
    2cc6:	00004097          	auipc	ra,0x4
    2cca:	3aa080e7          	jalr	938(ra) # 7070 <fork>
    2cce:	87aa                	mv	a5,a0
    2cd0:	fef42023          	sw	a5,-32(s0)
    2cd4:	fe042783          	lw	a5,-32(s0)
    2cd8:	2781                	sext.w	a5,a5
    2cda:	0207d163          	bgez	a5,2cfc <createdelete+0x48>
    2cde:	fa843583          	ld	a1,-88(s0)
    2ce2:	00005517          	auipc	a0,0x5
    2ce6:	19e50513          	addi	a0,a0,414 # 7e80 <longjmp_1+0x538>
    2cea:	00005097          	auipc	ra,0x5
    2cee:	8bc080e7          	jalr	-1860(ra) # 75a6 <printf>
    2cf2:	4505                	li	a0,1
    2cf4:	00004097          	auipc	ra,0x4
    2cf8:	384080e7          	jalr	900(ra) # 7078 <exit>
    2cfc:	fe042783          	lw	a5,-32(s0)
    2d00:	2781                	sext.w	a5,a5
    2d02:	10079663          	bnez	a5,2e0e <createdelete+0x15a>
    2d06:	fe842783          	lw	a5,-24(s0)
    2d0a:	0ff7f793          	andi	a5,a5,255
    2d0e:	0707879b          	addiw	a5,a5,112
    2d12:	0ff7f793          	andi	a5,a5,255
    2d16:	fcf40023          	sb	a5,-64(s0)
    2d1a:	fc040123          	sb	zero,-62(s0)
    2d1e:	fe042623          	sw	zero,-20(s0)
    2d22:	a8d1                	j	2df6 <createdelete+0x142>
    2d24:	fec42783          	lw	a5,-20(s0)
    2d28:	0ff7f793          	andi	a5,a5,255
    2d2c:	0307879b          	addiw	a5,a5,48
    2d30:	0ff7f793          	andi	a5,a5,255
    2d34:	fcf400a3          	sb	a5,-63(s0)
    2d38:	fc040793          	addi	a5,s0,-64
    2d3c:	20200593          	li	a1,514
    2d40:	853e                	mv	a0,a5
    2d42:	00004097          	auipc	ra,0x4
    2d46:	376080e7          	jalr	886(ra) # 70b8 <open>
    2d4a:	87aa                	mv	a5,a0
    2d4c:	fef42223          	sw	a5,-28(s0)
    2d50:	fe442783          	lw	a5,-28(s0)
    2d54:	2781                	sext.w	a5,a5
    2d56:	0207d163          	bgez	a5,2d78 <createdelete+0xc4>
    2d5a:	fa843583          	ld	a1,-88(s0)
    2d5e:	00005517          	auipc	a0,0x5
    2d62:	77250513          	addi	a0,a0,1906 # 84d0 <longjmp_1+0xb88>
    2d66:	00005097          	auipc	ra,0x5
    2d6a:	840080e7          	jalr	-1984(ra) # 75a6 <printf>
    2d6e:	4505                	li	a0,1
    2d70:	00004097          	auipc	ra,0x4
    2d74:	308080e7          	jalr	776(ra) # 7078 <exit>
    2d78:	fe442783          	lw	a5,-28(s0)
    2d7c:	853e                	mv	a0,a5
    2d7e:	00004097          	auipc	ra,0x4
    2d82:	322080e7          	jalr	802(ra) # 70a0 <close>
    2d86:	fec42783          	lw	a5,-20(s0)
    2d8a:	2781                	sext.w	a5,a5
    2d8c:	06f05063          	blez	a5,2dec <createdelete+0x138>
    2d90:	fec42783          	lw	a5,-20(s0)
    2d94:	8b85                	andi	a5,a5,1
    2d96:	2781                	sext.w	a5,a5
    2d98:	ebb1                	bnez	a5,2dec <createdelete+0x138>
    2d9a:	fec42783          	lw	a5,-20(s0)
    2d9e:	01f7d71b          	srliw	a4,a5,0x1f
    2da2:	9fb9                	addw	a5,a5,a4
    2da4:	4017d79b          	sraiw	a5,a5,0x1
    2da8:	2781                	sext.w	a5,a5
    2daa:	0ff7f793          	andi	a5,a5,255
    2dae:	0307879b          	addiw	a5,a5,48
    2db2:	0ff7f793          	andi	a5,a5,255
    2db6:	fcf400a3          	sb	a5,-63(s0)
    2dba:	fc040793          	addi	a5,s0,-64
    2dbe:	853e                	mv	a0,a5
    2dc0:	00004097          	auipc	ra,0x4
    2dc4:	308080e7          	jalr	776(ra) # 70c8 <unlink>
    2dc8:	87aa                	mv	a5,a0
    2dca:	0207d163          	bgez	a5,2dec <createdelete+0x138>
    2dce:	fa843583          	ld	a1,-88(s0)
    2dd2:	00005517          	auipc	a0,0x5
    2dd6:	44e50513          	addi	a0,a0,1102 # 8220 <longjmp_1+0x8d8>
    2dda:	00004097          	auipc	ra,0x4
    2dde:	7cc080e7          	jalr	1996(ra) # 75a6 <printf>
    2de2:	4505                	li	a0,1
    2de4:	00004097          	auipc	ra,0x4
    2de8:	294080e7          	jalr	660(ra) # 7078 <exit>
    2dec:	fec42783          	lw	a5,-20(s0)
    2df0:	2785                	addiw	a5,a5,1
    2df2:	fef42623          	sw	a5,-20(s0)
    2df6:	fec42783          	lw	a5,-20(s0)
    2dfa:	0007871b          	sext.w	a4,a5
    2dfe:	47cd                	li	a5,19
    2e00:	f2e7d2e3          	bge	a5,a4,2d24 <createdelete+0x70>
    2e04:	4501                	li	a0,0
    2e06:	00004097          	auipc	ra,0x4
    2e0a:	272080e7          	jalr	626(ra) # 7078 <exit>
    2e0e:	fe842783          	lw	a5,-24(s0)
    2e12:	2785                	addiw	a5,a5,1
    2e14:	fef42423          	sw	a5,-24(s0)
    2e18:	fe842783          	lw	a5,-24(s0)
    2e1c:	0007871b          	sext.w	a4,a5
    2e20:	478d                	li	a5,3
    2e22:	eae7d2e3          	bge	a5,a4,2cc6 <createdelete+0x12>
    2e26:	fe042423          	sw	zero,-24(s0)
    2e2a:	a02d                	j	2e54 <createdelete+0x1a0>
    2e2c:	fbc40793          	addi	a5,s0,-68
    2e30:	853e                	mv	a0,a5
    2e32:	00004097          	auipc	ra,0x4
    2e36:	24e080e7          	jalr	590(ra) # 7080 <wait>
    2e3a:	fbc42783          	lw	a5,-68(s0)
    2e3e:	c791                	beqz	a5,2e4a <createdelete+0x196>
    2e40:	4505                	li	a0,1
    2e42:	00004097          	auipc	ra,0x4
    2e46:	236080e7          	jalr	566(ra) # 7078 <exit>
    2e4a:	fe842783          	lw	a5,-24(s0)
    2e4e:	2785                	addiw	a5,a5,1
    2e50:	fef42423          	sw	a5,-24(s0)
    2e54:	fe842783          	lw	a5,-24(s0)
    2e58:	0007871b          	sext.w	a4,a5
    2e5c:	478d                	li	a5,3
    2e5e:	fce7d7e3          	bge	a5,a4,2e2c <createdelete+0x178>
    2e62:	fc040123          	sb	zero,-62(s0)
    2e66:	fc244783          	lbu	a5,-62(s0)
    2e6a:	fcf400a3          	sb	a5,-63(s0)
    2e6e:	fc144783          	lbu	a5,-63(s0)
    2e72:	fcf40023          	sb	a5,-64(s0)
    2e76:	fe042623          	sw	zero,-20(s0)
    2e7a:	a229                	j	2f84 <createdelete+0x2d0>
    2e7c:	fe042423          	sw	zero,-24(s0)
    2e80:	a0f5                	j	2f6c <createdelete+0x2b8>
    2e82:	fe842783          	lw	a5,-24(s0)
    2e86:	0ff7f793          	andi	a5,a5,255
    2e8a:	0707879b          	addiw	a5,a5,112
    2e8e:	0ff7f793          	andi	a5,a5,255
    2e92:	fcf40023          	sb	a5,-64(s0)
    2e96:	fec42783          	lw	a5,-20(s0)
    2e9a:	0ff7f793          	andi	a5,a5,255
    2e9e:	0307879b          	addiw	a5,a5,48
    2ea2:	0ff7f793          	andi	a5,a5,255
    2ea6:	fcf400a3          	sb	a5,-63(s0)
    2eaa:	fc040793          	addi	a5,s0,-64
    2eae:	4581                	li	a1,0
    2eb0:	853e                	mv	a0,a5
    2eb2:	00004097          	auipc	ra,0x4
    2eb6:	206080e7          	jalr	518(ra) # 70b8 <open>
    2eba:	87aa                	mv	a5,a0
    2ebc:	fef42223          	sw	a5,-28(s0)
    2ec0:	fec42783          	lw	a5,-20(s0)
    2ec4:	2781                	sext.w	a5,a5
    2ec6:	cb81                	beqz	a5,2ed6 <createdelete+0x222>
    2ec8:	fec42783          	lw	a5,-20(s0)
    2ecc:	0007871b          	sext.w	a4,a5
    2ed0:	47a5                	li	a5,9
    2ed2:	02e7d963          	bge	a5,a4,2f04 <createdelete+0x250>
    2ed6:	fe442783          	lw	a5,-28(s0)
    2eda:	2781                	sext.w	a5,a5
    2edc:	0207d463          	bgez	a5,2f04 <createdelete+0x250>
    2ee0:	fc040793          	addi	a5,s0,-64
    2ee4:	863e                	mv	a2,a5
    2ee6:	fa843583          	ld	a1,-88(s0)
    2eea:	00006517          	auipc	a0,0x6
    2eee:	8b650513          	addi	a0,a0,-1866 # 87a0 <longjmp_1+0xe58>
    2ef2:	00004097          	auipc	ra,0x4
    2ef6:	6b4080e7          	jalr	1716(ra) # 75a6 <printf>
    2efa:	4505                	li	a0,1
    2efc:	00004097          	auipc	ra,0x4
    2f00:	17c080e7          	jalr	380(ra) # 7078 <exit>
    2f04:	fec42783          	lw	a5,-20(s0)
    2f08:	2781                	sext.w	a5,a5
    2f0a:	04f05063          	blez	a5,2f4a <createdelete+0x296>
    2f0e:	fec42783          	lw	a5,-20(s0)
    2f12:	0007871b          	sext.w	a4,a5
    2f16:	47a5                	li	a5,9
    2f18:	02e7c963          	blt	a5,a4,2f4a <createdelete+0x296>
    2f1c:	fe442783          	lw	a5,-28(s0)
    2f20:	2781                	sext.w	a5,a5
    2f22:	0207c463          	bltz	a5,2f4a <createdelete+0x296>
    2f26:	fc040793          	addi	a5,s0,-64
    2f2a:	863e                	mv	a2,a5
    2f2c:	fa843583          	ld	a1,-88(s0)
    2f30:	00006517          	auipc	a0,0x6
    2f34:	89850513          	addi	a0,a0,-1896 # 87c8 <longjmp_1+0xe80>
    2f38:	00004097          	auipc	ra,0x4
    2f3c:	66e080e7          	jalr	1646(ra) # 75a6 <printf>
    2f40:	4505                	li	a0,1
    2f42:	00004097          	auipc	ra,0x4
    2f46:	136080e7          	jalr	310(ra) # 7078 <exit>
    2f4a:	fe442783          	lw	a5,-28(s0)
    2f4e:	2781                	sext.w	a5,a5
    2f50:	0007c963          	bltz	a5,2f62 <createdelete+0x2ae>
    2f54:	fe442783          	lw	a5,-28(s0)
    2f58:	853e                	mv	a0,a5
    2f5a:	00004097          	auipc	ra,0x4
    2f5e:	146080e7          	jalr	326(ra) # 70a0 <close>
    2f62:	fe842783          	lw	a5,-24(s0)
    2f66:	2785                	addiw	a5,a5,1
    2f68:	fef42423          	sw	a5,-24(s0)
    2f6c:	fe842783          	lw	a5,-24(s0)
    2f70:	0007871b          	sext.w	a4,a5
    2f74:	478d                	li	a5,3
    2f76:	f0e7d6e3          	bge	a5,a4,2e82 <createdelete+0x1ce>
    2f7a:	fec42783          	lw	a5,-20(s0)
    2f7e:	2785                	addiw	a5,a5,1
    2f80:	fef42623          	sw	a5,-20(s0)
    2f84:	fec42783          	lw	a5,-20(s0)
    2f88:	0007871b          	sext.w	a4,a5
    2f8c:	47cd                	li	a5,19
    2f8e:	eee7d7e3          	bge	a5,a4,2e7c <createdelete+0x1c8>
    2f92:	fe042623          	sw	zero,-20(s0)
    2f96:	a085                	j	2ff6 <createdelete+0x342>
    2f98:	fe042423          	sw	zero,-24(s0)
    2f9c:	a089                	j	2fde <createdelete+0x32a>
    2f9e:	fec42783          	lw	a5,-20(s0)
    2fa2:	0ff7f793          	andi	a5,a5,255
    2fa6:	0707879b          	addiw	a5,a5,112
    2faa:	0ff7f793          	andi	a5,a5,255
    2fae:	fcf40023          	sb	a5,-64(s0)
    2fb2:	fec42783          	lw	a5,-20(s0)
    2fb6:	0ff7f793          	andi	a5,a5,255
    2fba:	0307879b          	addiw	a5,a5,48
    2fbe:	0ff7f793          	andi	a5,a5,255
    2fc2:	fcf400a3          	sb	a5,-63(s0)
    2fc6:	fc040793          	addi	a5,s0,-64
    2fca:	853e                	mv	a0,a5
    2fcc:	00004097          	auipc	ra,0x4
    2fd0:	0fc080e7          	jalr	252(ra) # 70c8 <unlink>
    2fd4:	fe842783          	lw	a5,-24(s0)
    2fd8:	2785                	addiw	a5,a5,1
    2fda:	fef42423          	sw	a5,-24(s0)
    2fde:	fe842783          	lw	a5,-24(s0)
    2fe2:	0007871b          	sext.w	a4,a5
    2fe6:	478d                	li	a5,3
    2fe8:	fae7dbe3          	bge	a5,a4,2f9e <createdelete+0x2ea>
    2fec:	fec42783          	lw	a5,-20(s0)
    2ff0:	2785                	addiw	a5,a5,1
    2ff2:	fef42623          	sw	a5,-20(s0)
    2ff6:	fec42783          	lw	a5,-20(s0)
    2ffa:	0007871b          	sext.w	a4,a5
    2ffe:	47cd                	li	a5,19
    3000:	f8e7dce3          	bge	a5,a4,2f98 <createdelete+0x2e4>
    3004:	0001                	nop
    3006:	0001                	nop
    3008:	60e6                	ld	ra,88(sp)
    300a:	6446                	ld	s0,80(sp)
    300c:	6125                	addi	sp,sp,96
    300e:	8082                	ret

0000000000003010 <unlinkread>:
    3010:	7179                	addi	sp,sp,-48
    3012:	f406                	sd	ra,40(sp)
    3014:	f022                	sd	s0,32(sp)
    3016:	1800                	addi	s0,sp,48
    3018:	fca43c23          	sd	a0,-40(s0)
    301c:	20200593          	li	a1,514
    3020:	00005517          	auipc	a0,0x5
    3024:	a9050513          	addi	a0,a0,-1392 # 7ab0 <longjmp_1+0x168>
    3028:	00004097          	auipc	ra,0x4
    302c:	090080e7          	jalr	144(ra) # 70b8 <open>
    3030:	87aa                	mv	a5,a0
    3032:	fef42623          	sw	a5,-20(s0)
    3036:	fec42783          	lw	a5,-20(s0)
    303a:	2781                	sext.w	a5,a5
    303c:	0207d163          	bgez	a5,305e <unlinkread+0x4e>
    3040:	fd843583          	ld	a1,-40(s0)
    3044:	00005517          	auipc	a0,0x5
    3048:	7ac50513          	addi	a0,a0,1964 # 87f0 <longjmp_1+0xea8>
    304c:	00004097          	auipc	ra,0x4
    3050:	55a080e7          	jalr	1370(ra) # 75a6 <printf>
    3054:	4505                	li	a0,1
    3056:	00004097          	auipc	ra,0x4
    305a:	022080e7          	jalr	34(ra) # 7078 <exit>
    305e:	fec42783          	lw	a5,-20(s0)
    3062:	4615                	li	a2,5
    3064:	00005597          	auipc	a1,0x5
    3068:	7ac58593          	addi	a1,a1,1964 # 8810 <longjmp_1+0xec8>
    306c:	853e                	mv	a0,a5
    306e:	00004097          	auipc	ra,0x4
    3072:	02a080e7          	jalr	42(ra) # 7098 <write>
    3076:	fec42783          	lw	a5,-20(s0)
    307a:	853e                	mv	a0,a5
    307c:	00004097          	auipc	ra,0x4
    3080:	024080e7          	jalr	36(ra) # 70a0 <close>
    3084:	4589                	li	a1,2
    3086:	00005517          	auipc	a0,0x5
    308a:	a2a50513          	addi	a0,a0,-1494 # 7ab0 <longjmp_1+0x168>
    308e:	00004097          	auipc	ra,0x4
    3092:	02a080e7          	jalr	42(ra) # 70b8 <open>
    3096:	87aa                	mv	a5,a0
    3098:	fef42623          	sw	a5,-20(s0)
    309c:	fec42783          	lw	a5,-20(s0)
    30a0:	2781                	sext.w	a5,a5
    30a2:	0207d163          	bgez	a5,30c4 <unlinkread+0xb4>
    30a6:	fd843583          	ld	a1,-40(s0)
    30aa:	00005517          	auipc	a0,0x5
    30ae:	76e50513          	addi	a0,a0,1902 # 8818 <longjmp_1+0xed0>
    30b2:	00004097          	auipc	ra,0x4
    30b6:	4f4080e7          	jalr	1268(ra) # 75a6 <printf>
    30ba:	4505                	li	a0,1
    30bc:	00004097          	auipc	ra,0x4
    30c0:	fbc080e7          	jalr	-68(ra) # 7078 <exit>
    30c4:	00005517          	auipc	a0,0x5
    30c8:	9ec50513          	addi	a0,a0,-1556 # 7ab0 <longjmp_1+0x168>
    30cc:	00004097          	auipc	ra,0x4
    30d0:	ffc080e7          	jalr	-4(ra) # 70c8 <unlink>
    30d4:	87aa                	mv	a5,a0
    30d6:	c385                	beqz	a5,30f6 <unlinkread+0xe6>
    30d8:	fd843583          	ld	a1,-40(s0)
    30dc:	00005517          	auipc	a0,0x5
    30e0:	75c50513          	addi	a0,a0,1884 # 8838 <longjmp_1+0xef0>
    30e4:	00004097          	auipc	ra,0x4
    30e8:	4c2080e7          	jalr	1218(ra) # 75a6 <printf>
    30ec:	4505                	li	a0,1
    30ee:	00004097          	auipc	ra,0x4
    30f2:	f8a080e7          	jalr	-118(ra) # 7078 <exit>
    30f6:	20200593          	li	a1,514
    30fa:	00005517          	auipc	a0,0x5
    30fe:	9b650513          	addi	a0,a0,-1610 # 7ab0 <longjmp_1+0x168>
    3102:	00004097          	auipc	ra,0x4
    3106:	fb6080e7          	jalr	-74(ra) # 70b8 <open>
    310a:	87aa                	mv	a5,a0
    310c:	fef42423          	sw	a5,-24(s0)
    3110:	fe842783          	lw	a5,-24(s0)
    3114:	460d                	li	a2,3
    3116:	00005597          	auipc	a1,0x5
    311a:	74258593          	addi	a1,a1,1858 # 8858 <longjmp_1+0xf10>
    311e:	853e                	mv	a0,a5
    3120:	00004097          	auipc	ra,0x4
    3124:	f78080e7          	jalr	-136(ra) # 7098 <write>
    3128:	fe842783          	lw	a5,-24(s0)
    312c:	853e                	mv	a0,a5
    312e:	00004097          	auipc	ra,0x4
    3132:	f72080e7          	jalr	-142(ra) # 70a0 <close>
    3136:	fec42783          	lw	a5,-20(s0)
    313a:	660d                	lui	a2,0x3
    313c:	00007597          	auipc	a1,0x7
    3140:	fbc58593          	addi	a1,a1,-68 # a0f8 <buf>
    3144:	853e                	mv	a0,a5
    3146:	00004097          	auipc	ra,0x4
    314a:	f4a080e7          	jalr	-182(ra) # 7090 <read>
    314e:	87aa                	mv	a5,a0
    3150:	873e                	mv	a4,a5
    3152:	4795                	li	a5,5
    3154:	02f70163          	beq	a4,a5,3176 <unlinkread+0x166>
    3158:	fd843583          	ld	a1,-40(s0)
    315c:	00005517          	auipc	a0,0x5
    3160:	70450513          	addi	a0,a0,1796 # 8860 <longjmp_1+0xf18>
    3164:	00004097          	auipc	ra,0x4
    3168:	442080e7          	jalr	1090(ra) # 75a6 <printf>
    316c:	4505                	li	a0,1
    316e:	00004097          	auipc	ra,0x4
    3172:	f0a080e7          	jalr	-246(ra) # 7078 <exit>
    3176:	00007797          	auipc	a5,0x7
    317a:	f8278793          	addi	a5,a5,-126 # a0f8 <buf>
    317e:	0007c783          	lbu	a5,0(a5)
    3182:	873e                	mv	a4,a5
    3184:	06800793          	li	a5,104
    3188:	02f70163          	beq	a4,a5,31aa <unlinkread+0x19a>
    318c:	fd843583          	ld	a1,-40(s0)
    3190:	00005517          	auipc	a0,0x5
    3194:	6f050513          	addi	a0,a0,1776 # 8880 <longjmp_1+0xf38>
    3198:	00004097          	auipc	ra,0x4
    319c:	40e080e7          	jalr	1038(ra) # 75a6 <printf>
    31a0:	4505                	li	a0,1
    31a2:	00004097          	auipc	ra,0x4
    31a6:	ed6080e7          	jalr	-298(ra) # 7078 <exit>
    31aa:	fec42783          	lw	a5,-20(s0)
    31ae:	4629                	li	a2,10
    31b0:	00007597          	auipc	a1,0x7
    31b4:	f4858593          	addi	a1,a1,-184 # a0f8 <buf>
    31b8:	853e                	mv	a0,a5
    31ba:	00004097          	auipc	ra,0x4
    31be:	ede080e7          	jalr	-290(ra) # 7098 <write>
    31c2:	87aa                	mv	a5,a0
    31c4:	873e                	mv	a4,a5
    31c6:	47a9                	li	a5,10
    31c8:	02f70163          	beq	a4,a5,31ea <unlinkread+0x1da>
    31cc:	fd843583          	ld	a1,-40(s0)
    31d0:	00005517          	auipc	a0,0x5
    31d4:	6d050513          	addi	a0,a0,1744 # 88a0 <longjmp_1+0xf58>
    31d8:	00004097          	auipc	ra,0x4
    31dc:	3ce080e7          	jalr	974(ra) # 75a6 <printf>
    31e0:	4505                	li	a0,1
    31e2:	00004097          	auipc	ra,0x4
    31e6:	e96080e7          	jalr	-362(ra) # 7078 <exit>
    31ea:	fec42783          	lw	a5,-20(s0)
    31ee:	853e                	mv	a0,a5
    31f0:	00004097          	auipc	ra,0x4
    31f4:	eb0080e7          	jalr	-336(ra) # 70a0 <close>
    31f8:	00005517          	auipc	a0,0x5
    31fc:	8b850513          	addi	a0,a0,-1864 # 7ab0 <longjmp_1+0x168>
    3200:	00004097          	auipc	ra,0x4
    3204:	ec8080e7          	jalr	-312(ra) # 70c8 <unlink>
    3208:	0001                	nop
    320a:	70a2                	ld	ra,40(sp)
    320c:	7402                	ld	s0,32(sp)
    320e:	6145                	addi	sp,sp,48
    3210:	8082                	ret

0000000000003212 <linktest>:
    3212:	7179                	addi	sp,sp,-48
    3214:	f406                	sd	ra,40(sp)
    3216:	f022                	sd	s0,32(sp)
    3218:	1800                	addi	s0,sp,48
    321a:	fca43c23          	sd	a0,-40(s0)
    321e:	00005517          	auipc	a0,0x5
    3222:	6a250513          	addi	a0,a0,1698 # 88c0 <longjmp_1+0xf78>
    3226:	00004097          	auipc	ra,0x4
    322a:	ea2080e7          	jalr	-350(ra) # 70c8 <unlink>
    322e:	00005517          	auipc	a0,0x5
    3232:	69a50513          	addi	a0,a0,1690 # 88c8 <longjmp_1+0xf80>
    3236:	00004097          	auipc	ra,0x4
    323a:	e92080e7          	jalr	-366(ra) # 70c8 <unlink>
    323e:	20200593          	li	a1,514
    3242:	00005517          	auipc	a0,0x5
    3246:	67e50513          	addi	a0,a0,1662 # 88c0 <longjmp_1+0xf78>
    324a:	00004097          	auipc	ra,0x4
    324e:	e6e080e7          	jalr	-402(ra) # 70b8 <open>
    3252:	87aa                	mv	a5,a0
    3254:	fef42623          	sw	a5,-20(s0)
    3258:	fec42783          	lw	a5,-20(s0)
    325c:	2781                	sext.w	a5,a5
    325e:	0207d163          	bgez	a5,3280 <linktest+0x6e>
    3262:	fd843583          	ld	a1,-40(s0)
    3266:	00005517          	auipc	a0,0x5
    326a:	66a50513          	addi	a0,a0,1642 # 88d0 <longjmp_1+0xf88>
    326e:	00004097          	auipc	ra,0x4
    3272:	338080e7          	jalr	824(ra) # 75a6 <printf>
    3276:	4505                	li	a0,1
    3278:	00004097          	auipc	ra,0x4
    327c:	e00080e7          	jalr	-512(ra) # 7078 <exit>
    3280:	fec42783          	lw	a5,-20(s0)
    3284:	4615                	li	a2,5
    3286:	00005597          	auipc	a1,0x5
    328a:	58a58593          	addi	a1,a1,1418 # 8810 <longjmp_1+0xec8>
    328e:	853e                	mv	a0,a5
    3290:	00004097          	auipc	ra,0x4
    3294:	e08080e7          	jalr	-504(ra) # 7098 <write>
    3298:	87aa                	mv	a5,a0
    329a:	873e                	mv	a4,a5
    329c:	4795                	li	a5,5
    329e:	02f70163          	beq	a4,a5,32c0 <linktest+0xae>
    32a2:	fd843583          	ld	a1,-40(s0)
    32a6:	00005517          	auipc	a0,0x5
    32aa:	64250513          	addi	a0,a0,1602 # 88e8 <longjmp_1+0xfa0>
    32ae:	00004097          	auipc	ra,0x4
    32b2:	2f8080e7          	jalr	760(ra) # 75a6 <printf>
    32b6:	4505                	li	a0,1
    32b8:	00004097          	auipc	ra,0x4
    32bc:	dc0080e7          	jalr	-576(ra) # 7078 <exit>
    32c0:	fec42783          	lw	a5,-20(s0)
    32c4:	853e                	mv	a0,a5
    32c6:	00004097          	auipc	ra,0x4
    32ca:	dda080e7          	jalr	-550(ra) # 70a0 <close>
    32ce:	00005597          	auipc	a1,0x5
    32d2:	5fa58593          	addi	a1,a1,1530 # 88c8 <longjmp_1+0xf80>
    32d6:	00005517          	auipc	a0,0x5
    32da:	5ea50513          	addi	a0,a0,1514 # 88c0 <longjmp_1+0xf78>
    32de:	00004097          	auipc	ra,0x4
    32e2:	dfa080e7          	jalr	-518(ra) # 70d8 <link>
    32e6:	87aa                	mv	a5,a0
    32e8:	0207d163          	bgez	a5,330a <linktest+0xf8>
    32ec:	fd843583          	ld	a1,-40(s0)
    32f0:	00005517          	auipc	a0,0x5
    32f4:	61050513          	addi	a0,a0,1552 # 8900 <longjmp_1+0xfb8>
    32f8:	00004097          	auipc	ra,0x4
    32fc:	2ae080e7          	jalr	686(ra) # 75a6 <printf>
    3300:	4505                	li	a0,1
    3302:	00004097          	auipc	ra,0x4
    3306:	d76080e7          	jalr	-650(ra) # 7078 <exit>
    330a:	00005517          	auipc	a0,0x5
    330e:	5b650513          	addi	a0,a0,1462 # 88c0 <longjmp_1+0xf78>
    3312:	00004097          	auipc	ra,0x4
    3316:	db6080e7          	jalr	-586(ra) # 70c8 <unlink>
    331a:	4581                	li	a1,0
    331c:	00005517          	auipc	a0,0x5
    3320:	5a450513          	addi	a0,a0,1444 # 88c0 <longjmp_1+0xf78>
    3324:	00004097          	auipc	ra,0x4
    3328:	d94080e7          	jalr	-620(ra) # 70b8 <open>
    332c:	87aa                	mv	a5,a0
    332e:	0207c163          	bltz	a5,3350 <linktest+0x13e>
    3332:	fd843583          	ld	a1,-40(s0)
    3336:	00005517          	auipc	a0,0x5
    333a:	5ea50513          	addi	a0,a0,1514 # 8920 <longjmp_1+0xfd8>
    333e:	00004097          	auipc	ra,0x4
    3342:	268080e7          	jalr	616(ra) # 75a6 <printf>
    3346:	4505                	li	a0,1
    3348:	00004097          	auipc	ra,0x4
    334c:	d30080e7          	jalr	-720(ra) # 7078 <exit>
    3350:	4581                	li	a1,0
    3352:	00005517          	auipc	a0,0x5
    3356:	57650513          	addi	a0,a0,1398 # 88c8 <longjmp_1+0xf80>
    335a:	00004097          	auipc	ra,0x4
    335e:	d5e080e7          	jalr	-674(ra) # 70b8 <open>
    3362:	87aa                	mv	a5,a0
    3364:	fef42623          	sw	a5,-20(s0)
    3368:	fec42783          	lw	a5,-20(s0)
    336c:	2781                	sext.w	a5,a5
    336e:	0207d163          	bgez	a5,3390 <linktest+0x17e>
    3372:	fd843583          	ld	a1,-40(s0)
    3376:	00005517          	auipc	a0,0x5
    337a:	5da50513          	addi	a0,a0,1498 # 8950 <longjmp_1+0x1008>
    337e:	00004097          	auipc	ra,0x4
    3382:	228080e7          	jalr	552(ra) # 75a6 <printf>
    3386:	4505                	li	a0,1
    3388:	00004097          	auipc	ra,0x4
    338c:	cf0080e7          	jalr	-784(ra) # 7078 <exit>
    3390:	fec42783          	lw	a5,-20(s0)
    3394:	660d                	lui	a2,0x3
    3396:	00007597          	auipc	a1,0x7
    339a:	d6258593          	addi	a1,a1,-670 # a0f8 <buf>
    339e:	853e                	mv	a0,a5
    33a0:	00004097          	auipc	ra,0x4
    33a4:	cf0080e7          	jalr	-784(ra) # 7090 <read>
    33a8:	87aa                	mv	a5,a0
    33aa:	873e                	mv	a4,a5
    33ac:	4795                	li	a5,5
    33ae:	02f70163          	beq	a4,a5,33d0 <linktest+0x1be>
    33b2:	fd843583          	ld	a1,-40(s0)
    33b6:	00005517          	auipc	a0,0x5
    33ba:	5b250513          	addi	a0,a0,1458 # 8968 <longjmp_1+0x1020>
    33be:	00004097          	auipc	ra,0x4
    33c2:	1e8080e7          	jalr	488(ra) # 75a6 <printf>
    33c6:	4505                	li	a0,1
    33c8:	00004097          	auipc	ra,0x4
    33cc:	cb0080e7          	jalr	-848(ra) # 7078 <exit>
    33d0:	fec42783          	lw	a5,-20(s0)
    33d4:	853e                	mv	a0,a5
    33d6:	00004097          	auipc	ra,0x4
    33da:	cca080e7          	jalr	-822(ra) # 70a0 <close>
    33de:	00005597          	auipc	a1,0x5
    33e2:	4ea58593          	addi	a1,a1,1258 # 88c8 <longjmp_1+0xf80>
    33e6:	00005517          	auipc	a0,0x5
    33ea:	4e250513          	addi	a0,a0,1250 # 88c8 <longjmp_1+0xf80>
    33ee:	00004097          	auipc	ra,0x4
    33f2:	cea080e7          	jalr	-790(ra) # 70d8 <link>
    33f6:	87aa                	mv	a5,a0
    33f8:	0207c163          	bltz	a5,341a <linktest+0x208>
    33fc:	fd843583          	ld	a1,-40(s0)
    3400:	00005517          	auipc	a0,0x5
    3404:	58050513          	addi	a0,a0,1408 # 8980 <longjmp_1+0x1038>
    3408:	00004097          	auipc	ra,0x4
    340c:	19e080e7          	jalr	414(ra) # 75a6 <printf>
    3410:	4505                	li	a0,1
    3412:	00004097          	auipc	ra,0x4
    3416:	c66080e7          	jalr	-922(ra) # 7078 <exit>
    341a:	00005517          	auipc	a0,0x5
    341e:	4ae50513          	addi	a0,a0,1198 # 88c8 <longjmp_1+0xf80>
    3422:	00004097          	auipc	ra,0x4
    3426:	ca6080e7          	jalr	-858(ra) # 70c8 <unlink>
    342a:	00005597          	auipc	a1,0x5
    342e:	49658593          	addi	a1,a1,1174 # 88c0 <longjmp_1+0xf78>
    3432:	00005517          	auipc	a0,0x5
    3436:	49650513          	addi	a0,a0,1174 # 88c8 <longjmp_1+0xf80>
    343a:	00004097          	auipc	ra,0x4
    343e:	c9e080e7          	jalr	-866(ra) # 70d8 <link>
    3442:	87aa                	mv	a5,a0
    3444:	0207c163          	bltz	a5,3466 <linktest+0x254>
    3448:	fd843583          	ld	a1,-40(s0)
    344c:	00005517          	auipc	a0,0x5
    3450:	55c50513          	addi	a0,a0,1372 # 89a8 <longjmp_1+0x1060>
    3454:	00004097          	auipc	ra,0x4
    3458:	152080e7          	jalr	338(ra) # 75a6 <printf>
    345c:	4505                	li	a0,1
    345e:	00004097          	auipc	ra,0x4
    3462:	c1a080e7          	jalr	-998(ra) # 7078 <exit>
    3466:	00005597          	auipc	a1,0x5
    346a:	45a58593          	addi	a1,a1,1114 # 88c0 <longjmp_1+0xf78>
    346e:	00005517          	auipc	a0,0x5
    3472:	56250513          	addi	a0,a0,1378 # 89d0 <longjmp_1+0x1088>
    3476:	00004097          	auipc	ra,0x4
    347a:	c62080e7          	jalr	-926(ra) # 70d8 <link>
    347e:	87aa                	mv	a5,a0
    3480:	0207c163          	bltz	a5,34a2 <linktest+0x290>
    3484:	fd843583          	ld	a1,-40(s0)
    3488:	00005517          	auipc	a0,0x5
    348c:	55050513          	addi	a0,a0,1360 # 89d8 <longjmp_1+0x1090>
    3490:	00004097          	auipc	ra,0x4
    3494:	116080e7          	jalr	278(ra) # 75a6 <printf>
    3498:	4505                	li	a0,1
    349a:	00004097          	auipc	ra,0x4
    349e:	bde080e7          	jalr	-1058(ra) # 7078 <exit>
    34a2:	0001                	nop
    34a4:	70a2                	ld	ra,40(sp)
    34a6:	7402                	ld	s0,32(sp)
    34a8:	6145                	addi	sp,sp,48
    34aa:	8082                	ret

00000000000034ac <concreate>:
    34ac:	7119                	addi	sp,sp,-128
    34ae:	fc86                	sd	ra,120(sp)
    34b0:	f8a2                	sd	s0,112(sp)
    34b2:	0100                	addi	s0,sp,128
    34b4:	f8a43423          	sd	a0,-120(s0)
    34b8:	04300793          	li	a5,67
    34bc:	fcf40c23          	sb	a5,-40(s0)
    34c0:	fc040d23          	sb	zero,-38(s0)
    34c4:	fe042623          	sw	zero,-20(s0)
    34c8:	a215                	j	35ec <concreate+0x140>
    34ca:	fec42783          	lw	a5,-20(s0)
    34ce:	0ff7f793          	andi	a5,a5,255
    34d2:	0307879b          	addiw	a5,a5,48
    34d6:	0ff7f793          	andi	a5,a5,255
    34da:	fcf40ca3          	sb	a5,-39(s0)
    34de:	fd840793          	addi	a5,s0,-40
    34e2:	853e                	mv	a0,a5
    34e4:	00004097          	auipc	ra,0x4
    34e8:	be4080e7          	jalr	-1052(ra) # 70c8 <unlink>
    34ec:	00004097          	auipc	ra,0x4
    34f0:	b84080e7          	jalr	-1148(ra) # 7070 <fork>
    34f4:	87aa                	mv	a5,a0
    34f6:	fef42023          	sw	a5,-32(s0)
    34fa:	fe042783          	lw	a5,-32(s0)
    34fe:	2781                	sext.w	a5,a5
    3500:	c79d                	beqz	a5,352e <concreate+0x82>
    3502:	fec42703          	lw	a4,-20(s0)
    3506:	478d                	li	a5,3
    3508:	02f767bb          	remw	a5,a4,a5
    350c:	2781                	sext.w	a5,a5
    350e:	873e                	mv	a4,a5
    3510:	4785                	li	a5,1
    3512:	00f71e63          	bne	a4,a5,352e <concreate+0x82>
    3516:	fd840793          	addi	a5,s0,-40
    351a:	85be                	mv	a1,a5
    351c:	00005517          	auipc	a0,0x5
    3520:	4dc50513          	addi	a0,a0,1244 # 89f8 <longjmp_1+0x10b0>
    3524:	00004097          	auipc	ra,0x4
    3528:	bb4080e7          	jalr	-1100(ra) # 70d8 <link>
    352c:	a059                	j	35b2 <concreate+0x106>
    352e:	fe042783          	lw	a5,-32(s0)
    3532:	2781                	sext.w	a5,a5
    3534:	e79d                	bnez	a5,3562 <concreate+0xb6>
    3536:	fec42703          	lw	a4,-20(s0)
    353a:	4795                	li	a5,5
    353c:	02f767bb          	remw	a5,a4,a5
    3540:	2781                	sext.w	a5,a5
    3542:	873e                	mv	a4,a5
    3544:	4785                	li	a5,1
    3546:	00f71e63          	bne	a4,a5,3562 <concreate+0xb6>
    354a:	fd840793          	addi	a5,s0,-40
    354e:	85be                	mv	a1,a5
    3550:	00005517          	auipc	a0,0x5
    3554:	4a850513          	addi	a0,a0,1192 # 89f8 <longjmp_1+0x10b0>
    3558:	00004097          	auipc	ra,0x4
    355c:	b80080e7          	jalr	-1152(ra) # 70d8 <link>
    3560:	a889                	j	35b2 <concreate+0x106>
    3562:	fd840793          	addi	a5,s0,-40
    3566:	20200593          	li	a1,514
    356a:	853e                	mv	a0,a5
    356c:	00004097          	auipc	ra,0x4
    3570:	b4c080e7          	jalr	-1204(ra) # 70b8 <open>
    3574:	87aa                	mv	a5,a0
    3576:	fef42223          	sw	a5,-28(s0)
    357a:	fe442783          	lw	a5,-28(s0)
    357e:	2781                	sext.w	a5,a5
    3580:	0207d263          	bgez	a5,35a4 <concreate+0xf8>
    3584:	fd840793          	addi	a5,s0,-40
    3588:	85be                	mv	a1,a5
    358a:	00005517          	auipc	a0,0x5
    358e:	47650513          	addi	a0,a0,1142 # 8a00 <longjmp_1+0x10b8>
    3592:	00004097          	auipc	ra,0x4
    3596:	014080e7          	jalr	20(ra) # 75a6 <printf>
    359a:	4505                	li	a0,1
    359c:	00004097          	auipc	ra,0x4
    35a0:	adc080e7          	jalr	-1316(ra) # 7078 <exit>
    35a4:	fe442783          	lw	a5,-28(s0)
    35a8:	853e                	mv	a0,a5
    35aa:	00004097          	auipc	ra,0x4
    35ae:	af6080e7          	jalr	-1290(ra) # 70a0 <close>
    35b2:	fe042783          	lw	a5,-32(s0)
    35b6:	2781                	sext.w	a5,a5
    35b8:	e791                	bnez	a5,35c4 <concreate+0x118>
    35ba:	4501                	li	a0,0
    35bc:	00004097          	auipc	ra,0x4
    35c0:	abc080e7          	jalr	-1348(ra) # 7078 <exit>
    35c4:	f9c40793          	addi	a5,s0,-100
    35c8:	853e                	mv	a0,a5
    35ca:	00004097          	auipc	ra,0x4
    35ce:	ab6080e7          	jalr	-1354(ra) # 7080 <wait>
    35d2:	f9c42783          	lw	a5,-100(s0)
    35d6:	c791                	beqz	a5,35e2 <concreate+0x136>
    35d8:	4505                	li	a0,1
    35da:	00004097          	auipc	ra,0x4
    35de:	a9e080e7          	jalr	-1378(ra) # 7078 <exit>
    35e2:	fec42783          	lw	a5,-20(s0)
    35e6:	2785                	addiw	a5,a5,1
    35e8:	fef42623          	sw	a5,-20(s0)
    35ec:	fec42783          	lw	a5,-20(s0)
    35f0:	0007871b          	sext.w	a4,a5
    35f4:	02700793          	li	a5,39
    35f8:	ece7d9e3          	bge	a5,a4,34ca <concreate+0x1e>
    35fc:	fb040793          	addi	a5,s0,-80
    3600:	02800613          	li	a2,40
    3604:	4581                	li	a1,0
    3606:	853e                	mv	a0,a5
    3608:	00003097          	auipc	ra,0x3
    360c:	6c6080e7          	jalr	1734(ra) # 6cce <memset>
    3610:	4581                	li	a1,0
    3612:	00005517          	auipc	a0,0x5
    3616:	3be50513          	addi	a0,a0,958 # 89d0 <longjmp_1+0x1088>
    361a:	00004097          	auipc	ra,0x4
    361e:	a9e080e7          	jalr	-1378(ra) # 70b8 <open>
    3622:	87aa                	mv	a5,a0
    3624:	fef42223          	sw	a5,-28(s0)
    3628:	fe042423          	sw	zero,-24(s0)
    362c:	a86d                	j	36e6 <concreate+0x23a>
    362e:	fa045783          	lhu	a5,-96(s0)
    3632:	e391                	bnez	a5,3636 <concreate+0x18a>
    3634:	a84d                	j	36e6 <concreate+0x23a>
    3636:	fa244783          	lbu	a5,-94(s0)
    363a:	873e                	mv	a4,a5
    363c:	04300793          	li	a5,67
    3640:	0af71363          	bne	a4,a5,36e6 <concreate+0x23a>
    3644:	fa444783          	lbu	a5,-92(s0)
    3648:	efd9                	bnez	a5,36e6 <concreate+0x23a>
    364a:	fa344783          	lbu	a5,-93(s0)
    364e:	2781                	sext.w	a5,a5
    3650:	fd07879b          	addiw	a5,a5,-48
    3654:	fef42623          	sw	a5,-20(s0)
    3658:	fec42783          	lw	a5,-20(s0)
    365c:	2781                	sext.w	a5,a5
    365e:	0007c963          	bltz	a5,3670 <concreate+0x1c4>
    3662:	fec42783          	lw	a5,-20(s0)
    3666:	873e                	mv	a4,a5
    3668:	02700793          	li	a5,39
    366c:	02e7f563          	bgeu	a5,a4,3696 <concreate+0x1ea>
    3670:	fa040793          	addi	a5,s0,-96
    3674:	0789                	addi	a5,a5,2
    3676:	863e                	mv	a2,a5
    3678:	f8843583          	ld	a1,-120(s0)
    367c:	00005517          	auipc	a0,0x5
    3680:	3a450513          	addi	a0,a0,932 # 8a20 <longjmp_1+0x10d8>
    3684:	00004097          	auipc	ra,0x4
    3688:	f22080e7          	jalr	-222(ra) # 75a6 <printf>
    368c:	4505                	li	a0,1
    368e:	00004097          	auipc	ra,0x4
    3692:	9ea080e7          	jalr	-1558(ra) # 7078 <exit>
    3696:	fec42783          	lw	a5,-20(s0)
    369a:	ff040713          	addi	a4,s0,-16
    369e:	97ba                	add	a5,a5,a4
    36a0:	fc07c783          	lbu	a5,-64(a5)
    36a4:	c785                	beqz	a5,36cc <concreate+0x220>
    36a6:	fa040793          	addi	a5,s0,-96
    36aa:	0789                	addi	a5,a5,2
    36ac:	863e                	mv	a2,a5
    36ae:	f8843583          	ld	a1,-120(s0)
    36b2:	00005517          	auipc	a0,0x5
    36b6:	38e50513          	addi	a0,a0,910 # 8a40 <longjmp_1+0x10f8>
    36ba:	00004097          	auipc	ra,0x4
    36be:	eec080e7          	jalr	-276(ra) # 75a6 <printf>
    36c2:	4505                	li	a0,1
    36c4:	00004097          	auipc	ra,0x4
    36c8:	9b4080e7          	jalr	-1612(ra) # 7078 <exit>
    36cc:	fec42783          	lw	a5,-20(s0)
    36d0:	ff040713          	addi	a4,s0,-16
    36d4:	97ba                	add	a5,a5,a4
    36d6:	4705                	li	a4,1
    36d8:	fce78023          	sb	a4,-64(a5)
    36dc:	fe842783          	lw	a5,-24(s0)
    36e0:	2785                	addiw	a5,a5,1
    36e2:	fef42423          	sw	a5,-24(s0)
    36e6:	fa040713          	addi	a4,s0,-96
    36ea:	fe442783          	lw	a5,-28(s0)
    36ee:	4641                	li	a2,16
    36f0:	85ba                	mv	a1,a4
    36f2:	853e                	mv	a0,a5
    36f4:	00004097          	auipc	ra,0x4
    36f8:	99c080e7          	jalr	-1636(ra) # 7090 <read>
    36fc:	87aa                	mv	a5,a0
    36fe:	f2f048e3          	bgtz	a5,362e <concreate+0x182>
    3702:	fe442783          	lw	a5,-28(s0)
    3706:	853e                	mv	a0,a5
    3708:	00004097          	auipc	ra,0x4
    370c:	998080e7          	jalr	-1640(ra) # 70a0 <close>
    3710:	fe842783          	lw	a5,-24(s0)
    3714:	0007871b          	sext.w	a4,a5
    3718:	02800793          	li	a5,40
    371c:	02f70163          	beq	a4,a5,373e <concreate+0x292>
    3720:	f8843583          	ld	a1,-120(s0)
    3724:	00005517          	auipc	a0,0x5
    3728:	34450513          	addi	a0,a0,836 # 8a68 <longjmp_1+0x1120>
    372c:	00004097          	auipc	ra,0x4
    3730:	e7a080e7          	jalr	-390(ra) # 75a6 <printf>
    3734:	4505                	li	a0,1
    3736:	00004097          	auipc	ra,0x4
    373a:	942080e7          	jalr	-1726(ra) # 7078 <exit>
    373e:	fe042623          	sw	zero,-20(s0)
    3742:	a24d                	j	38e4 <concreate+0x438>
    3744:	fec42783          	lw	a5,-20(s0)
    3748:	0ff7f793          	andi	a5,a5,255
    374c:	0307879b          	addiw	a5,a5,48
    3750:	0ff7f793          	andi	a5,a5,255
    3754:	fcf40ca3          	sb	a5,-39(s0)
    3758:	00004097          	auipc	ra,0x4
    375c:	918080e7          	jalr	-1768(ra) # 7070 <fork>
    3760:	87aa                	mv	a5,a0
    3762:	fef42023          	sw	a5,-32(s0)
    3766:	fe042783          	lw	a5,-32(s0)
    376a:	2781                	sext.w	a5,a5
    376c:	0207d163          	bgez	a5,378e <concreate+0x2e2>
    3770:	f8843583          	ld	a1,-120(s0)
    3774:	00005517          	auipc	a0,0x5
    3778:	93450513          	addi	a0,a0,-1740 # 80a8 <longjmp_1+0x760>
    377c:	00004097          	auipc	ra,0x4
    3780:	e2a080e7          	jalr	-470(ra) # 75a6 <printf>
    3784:	4505                	li	a0,1
    3786:	00004097          	auipc	ra,0x4
    378a:	8f2080e7          	jalr	-1806(ra) # 7078 <exit>
    378e:	fec42703          	lw	a4,-20(s0)
    3792:	478d                	li	a5,3
    3794:	02f767bb          	remw	a5,a4,a5
    3798:	2781                	sext.w	a5,a5
    379a:	e789                	bnez	a5,37a4 <concreate+0x2f8>
    379c:	fe042783          	lw	a5,-32(s0)
    37a0:	2781                	sext.w	a5,a5
    37a2:	cf99                	beqz	a5,37c0 <concreate+0x314>
    37a4:	fec42703          	lw	a4,-20(s0)
    37a8:	478d                	li	a5,3
    37aa:	02f767bb          	remw	a5,a4,a5
    37ae:	2781                	sext.w	a5,a5
    37b0:	873e                	mv	a4,a5
    37b2:	4785                	li	a5,1
    37b4:	0af71b63          	bne	a4,a5,386a <concreate+0x3be>
    37b8:	fe042783          	lw	a5,-32(s0)
    37bc:	2781                	sext.w	a5,a5
    37be:	c7d5                	beqz	a5,386a <concreate+0x3be>
    37c0:	fd840793          	addi	a5,s0,-40
    37c4:	4581                	li	a1,0
    37c6:	853e                	mv	a0,a5
    37c8:	00004097          	auipc	ra,0x4
    37cc:	8f0080e7          	jalr	-1808(ra) # 70b8 <open>
    37d0:	87aa                	mv	a5,a0
    37d2:	853e                	mv	a0,a5
    37d4:	00004097          	auipc	ra,0x4
    37d8:	8cc080e7          	jalr	-1844(ra) # 70a0 <close>
    37dc:	fd840793          	addi	a5,s0,-40
    37e0:	4581                	li	a1,0
    37e2:	853e                	mv	a0,a5
    37e4:	00004097          	auipc	ra,0x4
    37e8:	8d4080e7          	jalr	-1836(ra) # 70b8 <open>
    37ec:	87aa                	mv	a5,a0
    37ee:	853e                	mv	a0,a5
    37f0:	00004097          	auipc	ra,0x4
    37f4:	8b0080e7          	jalr	-1872(ra) # 70a0 <close>
    37f8:	fd840793          	addi	a5,s0,-40
    37fc:	4581                	li	a1,0
    37fe:	853e                	mv	a0,a5
    3800:	00004097          	auipc	ra,0x4
    3804:	8b8080e7          	jalr	-1864(ra) # 70b8 <open>
    3808:	87aa                	mv	a5,a0
    380a:	853e                	mv	a0,a5
    380c:	00004097          	auipc	ra,0x4
    3810:	894080e7          	jalr	-1900(ra) # 70a0 <close>
    3814:	fd840793          	addi	a5,s0,-40
    3818:	4581                	li	a1,0
    381a:	853e                	mv	a0,a5
    381c:	00004097          	auipc	ra,0x4
    3820:	89c080e7          	jalr	-1892(ra) # 70b8 <open>
    3824:	87aa                	mv	a5,a0
    3826:	853e                	mv	a0,a5
    3828:	00004097          	auipc	ra,0x4
    382c:	878080e7          	jalr	-1928(ra) # 70a0 <close>
    3830:	fd840793          	addi	a5,s0,-40
    3834:	4581                	li	a1,0
    3836:	853e                	mv	a0,a5
    3838:	00004097          	auipc	ra,0x4
    383c:	880080e7          	jalr	-1920(ra) # 70b8 <open>
    3840:	87aa                	mv	a5,a0
    3842:	853e                	mv	a0,a5
    3844:	00004097          	auipc	ra,0x4
    3848:	85c080e7          	jalr	-1956(ra) # 70a0 <close>
    384c:	fd840793          	addi	a5,s0,-40
    3850:	4581                	li	a1,0
    3852:	853e                	mv	a0,a5
    3854:	00004097          	auipc	ra,0x4
    3858:	864080e7          	jalr	-1948(ra) # 70b8 <open>
    385c:	87aa                	mv	a5,a0
    385e:	853e                	mv	a0,a5
    3860:	00004097          	auipc	ra,0x4
    3864:	840080e7          	jalr	-1984(ra) # 70a0 <close>
    3868:	a899                	j	38be <concreate+0x412>
    386a:	fd840793          	addi	a5,s0,-40
    386e:	853e                	mv	a0,a5
    3870:	00004097          	auipc	ra,0x4
    3874:	858080e7          	jalr	-1960(ra) # 70c8 <unlink>
    3878:	fd840793          	addi	a5,s0,-40
    387c:	853e                	mv	a0,a5
    387e:	00004097          	auipc	ra,0x4
    3882:	84a080e7          	jalr	-1974(ra) # 70c8 <unlink>
    3886:	fd840793          	addi	a5,s0,-40
    388a:	853e                	mv	a0,a5
    388c:	00004097          	auipc	ra,0x4
    3890:	83c080e7          	jalr	-1988(ra) # 70c8 <unlink>
    3894:	fd840793          	addi	a5,s0,-40
    3898:	853e                	mv	a0,a5
    389a:	00004097          	auipc	ra,0x4
    389e:	82e080e7          	jalr	-2002(ra) # 70c8 <unlink>
    38a2:	fd840793          	addi	a5,s0,-40
    38a6:	853e                	mv	a0,a5
    38a8:	00004097          	auipc	ra,0x4
    38ac:	820080e7          	jalr	-2016(ra) # 70c8 <unlink>
    38b0:	fd840793          	addi	a5,s0,-40
    38b4:	853e                	mv	a0,a5
    38b6:	00004097          	auipc	ra,0x4
    38ba:	812080e7          	jalr	-2030(ra) # 70c8 <unlink>
    38be:	fe042783          	lw	a5,-32(s0)
    38c2:	2781                	sext.w	a5,a5
    38c4:	e791                	bnez	a5,38d0 <concreate+0x424>
    38c6:	4501                	li	a0,0
    38c8:	00003097          	auipc	ra,0x3
    38cc:	7b0080e7          	jalr	1968(ra) # 7078 <exit>
    38d0:	4501                	li	a0,0
    38d2:	00003097          	auipc	ra,0x3
    38d6:	7ae080e7          	jalr	1966(ra) # 7080 <wait>
    38da:	fec42783          	lw	a5,-20(s0)
    38de:	2785                	addiw	a5,a5,1
    38e0:	fef42623          	sw	a5,-20(s0)
    38e4:	fec42783          	lw	a5,-20(s0)
    38e8:	0007871b          	sext.w	a4,a5
    38ec:	02700793          	li	a5,39
    38f0:	e4e7dae3          	bge	a5,a4,3744 <concreate+0x298>
    38f4:	0001                	nop
    38f6:	0001                	nop
    38f8:	70e6                	ld	ra,120(sp)
    38fa:	7446                	ld	s0,112(sp)
    38fc:	6109                	addi	sp,sp,128
    38fe:	8082                	ret

0000000000003900 <linkunlink>:
    3900:	7179                	addi	sp,sp,-48
    3902:	f406                	sd	ra,40(sp)
    3904:	f022                	sd	s0,32(sp)
    3906:	1800                	addi	s0,sp,48
    3908:	fca43c23          	sd	a0,-40(s0)
    390c:	00004517          	auipc	a0,0x4
    3910:	47450513          	addi	a0,a0,1140 # 7d80 <longjmp_1+0x438>
    3914:	00003097          	auipc	ra,0x3
    3918:	7b4080e7          	jalr	1972(ra) # 70c8 <unlink>
    391c:	00003097          	auipc	ra,0x3
    3920:	754080e7          	jalr	1876(ra) # 7070 <fork>
    3924:	87aa                	mv	a5,a0
    3926:	fef42223          	sw	a5,-28(s0)
    392a:	fe442783          	lw	a5,-28(s0)
    392e:	2781                	sext.w	a5,a5
    3930:	0207d163          	bgez	a5,3952 <linkunlink+0x52>
    3934:	fd843583          	ld	a1,-40(s0)
    3938:	00004517          	auipc	a0,0x4
    393c:	77050513          	addi	a0,a0,1904 # 80a8 <longjmp_1+0x760>
    3940:	00004097          	auipc	ra,0x4
    3944:	c66080e7          	jalr	-922(ra) # 75a6 <printf>
    3948:	4505                	li	a0,1
    394a:	00003097          	auipc	ra,0x3
    394e:	72e080e7          	jalr	1838(ra) # 7078 <exit>
    3952:	fe442783          	lw	a5,-28(s0)
    3956:	2781                	sext.w	a5,a5
    3958:	c399                	beqz	a5,395e <linkunlink+0x5e>
    395a:	4785                	li	a5,1
    395c:	a019                	j	3962 <linkunlink+0x62>
    395e:	06100793          	li	a5,97
    3962:	fef42423          	sw	a5,-24(s0)
    3966:	fe042623          	sw	zero,-20(s0)
    396a:	a869                	j	3a04 <linkunlink+0x104>
    396c:	fe842703          	lw	a4,-24(s0)
    3970:	41c657b7          	lui	a5,0x41c65
    3974:	e6d7879b          	addiw	a5,a5,-403
    3978:	02f707bb          	mulw	a5,a4,a5
    397c:	0007871b          	sext.w	a4,a5
    3980:	678d                	lui	a5,0x3
    3982:	0397879b          	addiw	a5,a5,57
    3986:	9fb9                	addw	a5,a5,a4
    3988:	fef42423          	sw	a5,-24(s0)
    398c:	fe842703          	lw	a4,-24(s0)
    3990:	478d                	li	a5,3
    3992:	02f777bb          	remuw	a5,a4,a5
    3996:	2781                	sext.w	a5,a5
    3998:	e395                	bnez	a5,39bc <linkunlink+0xbc>
    399a:	20200593          	li	a1,514
    399e:	00004517          	auipc	a0,0x4
    39a2:	3e250513          	addi	a0,a0,994 # 7d80 <longjmp_1+0x438>
    39a6:	00003097          	auipc	ra,0x3
    39aa:	712080e7          	jalr	1810(ra) # 70b8 <open>
    39ae:	87aa                	mv	a5,a0
    39b0:	853e                	mv	a0,a5
    39b2:	00003097          	auipc	ra,0x3
    39b6:	6ee080e7          	jalr	1774(ra) # 70a0 <close>
    39ba:	a081                	j	39fa <linkunlink+0xfa>
    39bc:	fe842703          	lw	a4,-24(s0)
    39c0:	478d                	li	a5,3
    39c2:	02f777bb          	remuw	a5,a4,a5
    39c6:	2781                	sext.w	a5,a5
    39c8:	873e                	mv	a4,a5
    39ca:	4785                	li	a5,1
    39cc:	00f71f63          	bne	a4,a5,39ea <linkunlink+0xea>
    39d0:	00004597          	auipc	a1,0x4
    39d4:	3b058593          	addi	a1,a1,944 # 7d80 <longjmp_1+0x438>
    39d8:	00005517          	auipc	a0,0x5
    39dc:	0c850513          	addi	a0,a0,200 # 8aa0 <longjmp_1+0x1158>
    39e0:	00003097          	auipc	ra,0x3
    39e4:	6f8080e7          	jalr	1784(ra) # 70d8 <link>
    39e8:	a809                	j	39fa <linkunlink+0xfa>
    39ea:	00004517          	auipc	a0,0x4
    39ee:	39650513          	addi	a0,a0,918 # 7d80 <longjmp_1+0x438>
    39f2:	00003097          	auipc	ra,0x3
    39f6:	6d6080e7          	jalr	1750(ra) # 70c8 <unlink>
    39fa:	fec42783          	lw	a5,-20(s0)
    39fe:	2785                	addiw	a5,a5,1
    3a00:	fef42623          	sw	a5,-20(s0)
    3a04:	fec42783          	lw	a5,-20(s0)
    3a08:	0007871b          	sext.w	a4,a5
    3a0c:	06300793          	li	a5,99
    3a10:	f4e7dee3          	bge	a5,a4,396c <linkunlink+0x6c>
    3a14:	fe442783          	lw	a5,-28(s0)
    3a18:	2781                	sext.w	a5,a5
    3a1a:	c799                	beqz	a5,3a28 <linkunlink+0x128>
    3a1c:	4501                	li	a0,0
    3a1e:	00003097          	auipc	ra,0x3
    3a22:	662080e7          	jalr	1634(ra) # 7080 <wait>
    3a26:	a031                	j	3a32 <linkunlink+0x132>
    3a28:	4501                	li	a0,0
    3a2a:	00003097          	auipc	ra,0x3
    3a2e:	64e080e7          	jalr	1614(ra) # 7078 <exit>
    3a32:	70a2                	ld	ra,40(sp)
    3a34:	7402                	ld	s0,32(sp)
    3a36:	6145                	addi	sp,sp,48
    3a38:	8082                	ret

0000000000003a3a <bigdir>:
    3a3a:	7139                	addi	sp,sp,-64
    3a3c:	fc06                	sd	ra,56(sp)
    3a3e:	f822                	sd	s0,48(sp)
    3a40:	0080                	addi	s0,sp,64
    3a42:	fca43423          	sd	a0,-56(s0)
    3a46:	00005517          	auipc	a0,0x5
    3a4a:	06250513          	addi	a0,a0,98 # 8aa8 <longjmp_1+0x1160>
    3a4e:	00003097          	auipc	ra,0x3
    3a52:	67a080e7          	jalr	1658(ra) # 70c8 <unlink>
    3a56:	20000593          	li	a1,512
    3a5a:	00005517          	auipc	a0,0x5
    3a5e:	04e50513          	addi	a0,a0,78 # 8aa8 <longjmp_1+0x1160>
    3a62:	00003097          	auipc	ra,0x3
    3a66:	656080e7          	jalr	1622(ra) # 70b8 <open>
    3a6a:	87aa                	mv	a5,a0
    3a6c:	fef42423          	sw	a5,-24(s0)
    3a70:	fe842783          	lw	a5,-24(s0)
    3a74:	2781                	sext.w	a5,a5
    3a76:	0207d163          	bgez	a5,3a98 <bigdir+0x5e>
    3a7a:	fc843583          	ld	a1,-56(s0)
    3a7e:	00005517          	auipc	a0,0x5
    3a82:	03250513          	addi	a0,a0,50 # 8ab0 <longjmp_1+0x1168>
    3a86:	00004097          	auipc	ra,0x4
    3a8a:	b20080e7          	jalr	-1248(ra) # 75a6 <printf>
    3a8e:	4505                	li	a0,1
    3a90:	00003097          	auipc	ra,0x3
    3a94:	5e8080e7          	jalr	1512(ra) # 7078 <exit>
    3a98:	fe842783          	lw	a5,-24(s0)
    3a9c:	853e                	mv	a0,a5
    3a9e:	00003097          	auipc	ra,0x3
    3aa2:	602080e7          	jalr	1538(ra) # 70a0 <close>
    3aa6:	fe042623          	sw	zero,-20(s0)
    3aaa:	a04d                	j	3b4c <bigdir+0x112>
    3aac:	07800793          	li	a5,120
    3ab0:	fcf40c23          	sb	a5,-40(s0)
    3ab4:	fec42783          	lw	a5,-20(s0)
    3ab8:	41f7d71b          	sraiw	a4,a5,0x1f
    3abc:	01a7571b          	srliw	a4,a4,0x1a
    3ac0:	9fb9                	addw	a5,a5,a4
    3ac2:	4067d79b          	sraiw	a5,a5,0x6
    3ac6:	2781                	sext.w	a5,a5
    3ac8:	0ff7f793          	andi	a5,a5,255
    3acc:	0307879b          	addiw	a5,a5,48
    3ad0:	0ff7f793          	andi	a5,a5,255
    3ad4:	fcf40ca3          	sb	a5,-39(s0)
    3ad8:	fec42703          	lw	a4,-20(s0)
    3adc:	41f7579b          	sraiw	a5,a4,0x1f
    3ae0:	01a7d79b          	srliw	a5,a5,0x1a
    3ae4:	9f3d                	addw	a4,a4,a5
    3ae6:	03f77713          	andi	a4,a4,63
    3aea:	40f707bb          	subw	a5,a4,a5
    3aee:	2781                	sext.w	a5,a5
    3af0:	0ff7f793          	andi	a5,a5,255
    3af4:	0307879b          	addiw	a5,a5,48
    3af8:	0ff7f793          	andi	a5,a5,255
    3afc:	fcf40d23          	sb	a5,-38(s0)
    3b00:	fc040da3          	sb	zero,-37(s0)
    3b04:	fd840793          	addi	a5,s0,-40
    3b08:	85be                	mv	a1,a5
    3b0a:	00005517          	auipc	a0,0x5
    3b0e:	f9e50513          	addi	a0,a0,-98 # 8aa8 <longjmp_1+0x1160>
    3b12:	00003097          	auipc	ra,0x3
    3b16:	5c6080e7          	jalr	1478(ra) # 70d8 <link>
    3b1a:	87aa                	mv	a5,a0
    3b1c:	c39d                	beqz	a5,3b42 <bigdir+0x108>
    3b1e:	fd840793          	addi	a5,s0,-40
    3b22:	863e                	mv	a2,a5
    3b24:	fc843583          	ld	a1,-56(s0)
    3b28:	00005517          	auipc	a0,0x5
    3b2c:	fa850513          	addi	a0,a0,-88 # 8ad0 <longjmp_1+0x1188>
    3b30:	00004097          	auipc	ra,0x4
    3b34:	a76080e7          	jalr	-1418(ra) # 75a6 <printf>
    3b38:	4505                	li	a0,1
    3b3a:	00003097          	auipc	ra,0x3
    3b3e:	53e080e7          	jalr	1342(ra) # 7078 <exit>
    3b42:	fec42783          	lw	a5,-20(s0)
    3b46:	2785                	addiw	a5,a5,1
    3b48:	fef42623          	sw	a5,-20(s0)
    3b4c:	fec42783          	lw	a5,-20(s0)
    3b50:	0007871b          	sext.w	a4,a5
    3b54:	1f300793          	li	a5,499
    3b58:	f4e7dae3          	bge	a5,a4,3aac <bigdir+0x72>
    3b5c:	00005517          	auipc	a0,0x5
    3b60:	f4c50513          	addi	a0,a0,-180 # 8aa8 <longjmp_1+0x1160>
    3b64:	00003097          	auipc	ra,0x3
    3b68:	564080e7          	jalr	1380(ra) # 70c8 <unlink>
    3b6c:	fe042623          	sw	zero,-20(s0)
    3b70:	a851                	j	3c04 <bigdir+0x1ca>
    3b72:	07800793          	li	a5,120
    3b76:	fcf40c23          	sb	a5,-40(s0)
    3b7a:	fec42783          	lw	a5,-20(s0)
    3b7e:	41f7d71b          	sraiw	a4,a5,0x1f
    3b82:	01a7571b          	srliw	a4,a4,0x1a
    3b86:	9fb9                	addw	a5,a5,a4
    3b88:	4067d79b          	sraiw	a5,a5,0x6
    3b8c:	2781                	sext.w	a5,a5
    3b8e:	0ff7f793          	andi	a5,a5,255
    3b92:	0307879b          	addiw	a5,a5,48
    3b96:	0ff7f793          	andi	a5,a5,255
    3b9a:	fcf40ca3          	sb	a5,-39(s0)
    3b9e:	fec42703          	lw	a4,-20(s0)
    3ba2:	41f7579b          	sraiw	a5,a4,0x1f
    3ba6:	01a7d79b          	srliw	a5,a5,0x1a
    3baa:	9f3d                	addw	a4,a4,a5
    3bac:	03f77713          	andi	a4,a4,63
    3bb0:	40f707bb          	subw	a5,a4,a5
    3bb4:	2781                	sext.w	a5,a5
    3bb6:	0ff7f793          	andi	a5,a5,255
    3bba:	0307879b          	addiw	a5,a5,48
    3bbe:	0ff7f793          	andi	a5,a5,255
    3bc2:	fcf40d23          	sb	a5,-38(s0)
    3bc6:	fc040da3          	sb	zero,-37(s0)
    3bca:	fd840793          	addi	a5,s0,-40
    3bce:	853e                	mv	a0,a5
    3bd0:	00003097          	auipc	ra,0x3
    3bd4:	4f8080e7          	jalr	1272(ra) # 70c8 <unlink>
    3bd8:	87aa                	mv	a5,a0
    3bda:	c385                	beqz	a5,3bfa <bigdir+0x1c0>
    3bdc:	fc843583          	ld	a1,-56(s0)
    3be0:	00005517          	auipc	a0,0x5
    3be4:	f1050513          	addi	a0,a0,-240 # 8af0 <longjmp_1+0x11a8>
    3be8:	00004097          	auipc	ra,0x4
    3bec:	9be080e7          	jalr	-1602(ra) # 75a6 <printf>
    3bf0:	4505                	li	a0,1
    3bf2:	00003097          	auipc	ra,0x3
    3bf6:	486080e7          	jalr	1158(ra) # 7078 <exit>
    3bfa:	fec42783          	lw	a5,-20(s0)
    3bfe:	2785                	addiw	a5,a5,1
    3c00:	fef42623          	sw	a5,-20(s0)
    3c04:	fec42783          	lw	a5,-20(s0)
    3c08:	0007871b          	sext.w	a4,a5
    3c0c:	1f300793          	li	a5,499
    3c10:	f6e7d1e3          	bge	a5,a4,3b72 <bigdir+0x138>
    3c14:	0001                	nop
    3c16:	0001                	nop
    3c18:	70e2                	ld	ra,56(sp)
    3c1a:	7442                	ld	s0,48(sp)
    3c1c:	6121                	addi	sp,sp,64
    3c1e:	8082                	ret

0000000000003c20 <subdir>:
    3c20:	7179                	addi	sp,sp,-48
    3c22:	f406                	sd	ra,40(sp)
    3c24:	f022                	sd	s0,32(sp)
    3c26:	1800                	addi	s0,sp,48
    3c28:	fca43c23          	sd	a0,-40(s0)
    3c2c:	00005517          	auipc	a0,0x5
    3c30:	ee450513          	addi	a0,a0,-284 # 8b10 <longjmp_1+0x11c8>
    3c34:	00003097          	auipc	ra,0x3
    3c38:	494080e7          	jalr	1172(ra) # 70c8 <unlink>
    3c3c:	00005517          	auipc	a0,0x5
    3c40:	edc50513          	addi	a0,a0,-292 # 8b18 <longjmp_1+0x11d0>
    3c44:	00003097          	auipc	ra,0x3
    3c48:	49c080e7          	jalr	1180(ra) # 70e0 <mkdir>
    3c4c:	87aa                	mv	a5,a0
    3c4e:	c385                	beqz	a5,3c6e <subdir+0x4e>
    3c50:	fd843583          	ld	a1,-40(s0)
    3c54:	00005517          	auipc	a0,0x5
    3c58:	ecc50513          	addi	a0,a0,-308 # 8b20 <longjmp_1+0x11d8>
    3c5c:	00004097          	auipc	ra,0x4
    3c60:	94a080e7          	jalr	-1718(ra) # 75a6 <printf>
    3c64:	4505                	li	a0,1
    3c66:	00003097          	auipc	ra,0x3
    3c6a:	412080e7          	jalr	1042(ra) # 7078 <exit>
    3c6e:	20200593          	li	a1,514
    3c72:	00005517          	auipc	a0,0x5
    3c76:	ec650513          	addi	a0,a0,-314 # 8b38 <longjmp_1+0x11f0>
    3c7a:	00003097          	auipc	ra,0x3
    3c7e:	43e080e7          	jalr	1086(ra) # 70b8 <open>
    3c82:	87aa                	mv	a5,a0
    3c84:	fef42623          	sw	a5,-20(s0)
    3c88:	fec42783          	lw	a5,-20(s0)
    3c8c:	2781                	sext.w	a5,a5
    3c8e:	0207d163          	bgez	a5,3cb0 <subdir+0x90>
    3c92:	fd843583          	ld	a1,-40(s0)
    3c96:	00005517          	auipc	a0,0x5
    3c9a:	eaa50513          	addi	a0,a0,-342 # 8b40 <longjmp_1+0x11f8>
    3c9e:	00004097          	auipc	ra,0x4
    3ca2:	908080e7          	jalr	-1784(ra) # 75a6 <printf>
    3ca6:	4505                	li	a0,1
    3ca8:	00003097          	auipc	ra,0x3
    3cac:	3d0080e7          	jalr	976(ra) # 7078 <exit>
    3cb0:	fec42783          	lw	a5,-20(s0)
    3cb4:	4609                	li	a2,2
    3cb6:	00005597          	auipc	a1,0x5
    3cba:	e5a58593          	addi	a1,a1,-422 # 8b10 <longjmp_1+0x11c8>
    3cbe:	853e                	mv	a0,a5
    3cc0:	00003097          	auipc	ra,0x3
    3cc4:	3d8080e7          	jalr	984(ra) # 7098 <write>
    3cc8:	fec42783          	lw	a5,-20(s0)
    3ccc:	853e                	mv	a0,a5
    3cce:	00003097          	auipc	ra,0x3
    3cd2:	3d2080e7          	jalr	978(ra) # 70a0 <close>
    3cd6:	00005517          	auipc	a0,0x5
    3cda:	e4250513          	addi	a0,a0,-446 # 8b18 <longjmp_1+0x11d0>
    3cde:	00003097          	auipc	ra,0x3
    3ce2:	3ea080e7          	jalr	1002(ra) # 70c8 <unlink>
    3ce6:	87aa                	mv	a5,a0
    3ce8:	0207c163          	bltz	a5,3d0a <subdir+0xea>
    3cec:	fd843583          	ld	a1,-40(s0)
    3cf0:	00005517          	auipc	a0,0x5
    3cf4:	e7050513          	addi	a0,a0,-400 # 8b60 <longjmp_1+0x1218>
    3cf8:	00004097          	auipc	ra,0x4
    3cfc:	8ae080e7          	jalr	-1874(ra) # 75a6 <printf>
    3d00:	4505                	li	a0,1
    3d02:	00003097          	auipc	ra,0x3
    3d06:	376080e7          	jalr	886(ra) # 7078 <exit>
    3d0a:	00005517          	auipc	a0,0x5
    3d0e:	e8650513          	addi	a0,a0,-378 # 8b90 <longjmp_1+0x1248>
    3d12:	00003097          	auipc	ra,0x3
    3d16:	3ce080e7          	jalr	974(ra) # 70e0 <mkdir>
    3d1a:	87aa                	mv	a5,a0
    3d1c:	c385                	beqz	a5,3d3c <subdir+0x11c>
    3d1e:	fd843583          	ld	a1,-40(s0)
    3d22:	00005517          	auipc	a0,0x5
    3d26:	e7650513          	addi	a0,a0,-394 # 8b98 <longjmp_1+0x1250>
    3d2a:	00004097          	auipc	ra,0x4
    3d2e:	87c080e7          	jalr	-1924(ra) # 75a6 <printf>
    3d32:	4505                	li	a0,1
    3d34:	00003097          	auipc	ra,0x3
    3d38:	344080e7          	jalr	836(ra) # 7078 <exit>
    3d3c:	20200593          	li	a1,514
    3d40:	00005517          	auipc	a0,0x5
    3d44:	e7850513          	addi	a0,a0,-392 # 8bb8 <longjmp_1+0x1270>
    3d48:	00003097          	auipc	ra,0x3
    3d4c:	370080e7          	jalr	880(ra) # 70b8 <open>
    3d50:	87aa                	mv	a5,a0
    3d52:	fef42623          	sw	a5,-20(s0)
    3d56:	fec42783          	lw	a5,-20(s0)
    3d5a:	2781                	sext.w	a5,a5
    3d5c:	0207d163          	bgez	a5,3d7e <subdir+0x15e>
    3d60:	fd843583          	ld	a1,-40(s0)
    3d64:	00005517          	auipc	a0,0x5
    3d68:	e6450513          	addi	a0,a0,-412 # 8bc8 <longjmp_1+0x1280>
    3d6c:	00004097          	auipc	ra,0x4
    3d70:	83a080e7          	jalr	-1990(ra) # 75a6 <printf>
    3d74:	4505                	li	a0,1
    3d76:	00003097          	auipc	ra,0x3
    3d7a:	302080e7          	jalr	770(ra) # 7078 <exit>
    3d7e:	fec42783          	lw	a5,-20(s0)
    3d82:	4609                	li	a2,2
    3d84:	00005597          	auipc	a1,0x5
    3d88:	e6458593          	addi	a1,a1,-412 # 8be8 <longjmp_1+0x12a0>
    3d8c:	853e                	mv	a0,a5
    3d8e:	00003097          	auipc	ra,0x3
    3d92:	30a080e7          	jalr	778(ra) # 7098 <write>
    3d96:	fec42783          	lw	a5,-20(s0)
    3d9a:	853e                	mv	a0,a5
    3d9c:	00003097          	auipc	ra,0x3
    3da0:	304080e7          	jalr	772(ra) # 70a0 <close>
    3da4:	4581                	li	a1,0
    3da6:	00005517          	auipc	a0,0x5
    3daa:	e4a50513          	addi	a0,a0,-438 # 8bf0 <longjmp_1+0x12a8>
    3dae:	00003097          	auipc	ra,0x3
    3db2:	30a080e7          	jalr	778(ra) # 70b8 <open>
    3db6:	87aa                	mv	a5,a0
    3db8:	fef42623          	sw	a5,-20(s0)
    3dbc:	fec42783          	lw	a5,-20(s0)
    3dc0:	2781                	sext.w	a5,a5
    3dc2:	0207d163          	bgez	a5,3de4 <subdir+0x1c4>
    3dc6:	fd843583          	ld	a1,-40(s0)
    3dca:	00005517          	auipc	a0,0x5
    3dce:	e3650513          	addi	a0,a0,-458 # 8c00 <longjmp_1+0x12b8>
    3dd2:	00003097          	auipc	ra,0x3
    3dd6:	7d4080e7          	jalr	2004(ra) # 75a6 <printf>
    3dda:	4505                	li	a0,1
    3ddc:	00003097          	auipc	ra,0x3
    3de0:	29c080e7          	jalr	668(ra) # 7078 <exit>
    3de4:	fec42783          	lw	a5,-20(s0)
    3de8:	660d                	lui	a2,0x3
    3dea:	00006597          	auipc	a1,0x6
    3dee:	30e58593          	addi	a1,a1,782 # a0f8 <buf>
    3df2:	853e                	mv	a0,a5
    3df4:	00003097          	auipc	ra,0x3
    3df8:	29c080e7          	jalr	668(ra) # 7090 <read>
    3dfc:	87aa                	mv	a5,a0
    3dfe:	fef42423          	sw	a5,-24(s0)
    3e02:	fe842783          	lw	a5,-24(s0)
    3e06:	0007871b          	sext.w	a4,a5
    3e0a:	4789                	li	a5,2
    3e0c:	00f71d63          	bne	a4,a5,3e26 <subdir+0x206>
    3e10:	00006797          	auipc	a5,0x6
    3e14:	2e878793          	addi	a5,a5,744 # a0f8 <buf>
    3e18:	0007c783          	lbu	a5,0(a5)
    3e1c:	873e                	mv	a4,a5
    3e1e:	06600793          	li	a5,102
    3e22:	02f70163          	beq	a4,a5,3e44 <subdir+0x224>
    3e26:	fd843583          	ld	a1,-40(s0)
    3e2a:	00005517          	auipc	a0,0x5
    3e2e:	df650513          	addi	a0,a0,-522 # 8c20 <longjmp_1+0x12d8>
    3e32:	00003097          	auipc	ra,0x3
    3e36:	774080e7          	jalr	1908(ra) # 75a6 <printf>
    3e3a:	4505                	li	a0,1
    3e3c:	00003097          	auipc	ra,0x3
    3e40:	23c080e7          	jalr	572(ra) # 7078 <exit>
    3e44:	fec42783          	lw	a5,-20(s0)
    3e48:	853e                	mv	a0,a5
    3e4a:	00003097          	auipc	ra,0x3
    3e4e:	256080e7          	jalr	598(ra) # 70a0 <close>
    3e52:	00005597          	auipc	a1,0x5
    3e56:	dee58593          	addi	a1,a1,-530 # 8c40 <longjmp_1+0x12f8>
    3e5a:	00005517          	auipc	a0,0x5
    3e5e:	d5e50513          	addi	a0,a0,-674 # 8bb8 <longjmp_1+0x1270>
    3e62:	00003097          	auipc	ra,0x3
    3e66:	276080e7          	jalr	630(ra) # 70d8 <link>
    3e6a:	87aa                	mv	a5,a0
    3e6c:	c385                	beqz	a5,3e8c <subdir+0x26c>
    3e6e:	fd843583          	ld	a1,-40(s0)
    3e72:	00005517          	auipc	a0,0x5
    3e76:	dde50513          	addi	a0,a0,-546 # 8c50 <longjmp_1+0x1308>
    3e7a:	00003097          	auipc	ra,0x3
    3e7e:	72c080e7          	jalr	1836(ra) # 75a6 <printf>
    3e82:	4505                	li	a0,1
    3e84:	00003097          	auipc	ra,0x3
    3e88:	1f4080e7          	jalr	500(ra) # 7078 <exit>
    3e8c:	00005517          	auipc	a0,0x5
    3e90:	d2c50513          	addi	a0,a0,-724 # 8bb8 <longjmp_1+0x1270>
    3e94:	00003097          	auipc	ra,0x3
    3e98:	234080e7          	jalr	564(ra) # 70c8 <unlink>
    3e9c:	87aa                	mv	a5,a0
    3e9e:	c385                	beqz	a5,3ebe <subdir+0x29e>
    3ea0:	fd843583          	ld	a1,-40(s0)
    3ea4:	00005517          	auipc	a0,0x5
    3ea8:	dd450513          	addi	a0,a0,-556 # 8c78 <longjmp_1+0x1330>
    3eac:	00003097          	auipc	ra,0x3
    3eb0:	6fa080e7          	jalr	1786(ra) # 75a6 <printf>
    3eb4:	4505                	li	a0,1
    3eb6:	00003097          	auipc	ra,0x3
    3eba:	1c2080e7          	jalr	450(ra) # 7078 <exit>
    3ebe:	4581                	li	a1,0
    3ec0:	00005517          	auipc	a0,0x5
    3ec4:	cf850513          	addi	a0,a0,-776 # 8bb8 <longjmp_1+0x1270>
    3ec8:	00003097          	auipc	ra,0x3
    3ecc:	1f0080e7          	jalr	496(ra) # 70b8 <open>
    3ed0:	87aa                	mv	a5,a0
    3ed2:	0207c163          	bltz	a5,3ef4 <subdir+0x2d4>
    3ed6:	fd843583          	ld	a1,-40(s0)
    3eda:	00005517          	auipc	a0,0x5
    3ede:	dbe50513          	addi	a0,a0,-578 # 8c98 <longjmp_1+0x1350>
    3ee2:	00003097          	auipc	ra,0x3
    3ee6:	6c4080e7          	jalr	1732(ra) # 75a6 <printf>
    3eea:	4505                	li	a0,1
    3eec:	00003097          	auipc	ra,0x3
    3ef0:	18c080e7          	jalr	396(ra) # 7078 <exit>
    3ef4:	00005517          	auipc	a0,0x5
    3ef8:	c2450513          	addi	a0,a0,-988 # 8b18 <longjmp_1+0x11d0>
    3efc:	00003097          	auipc	ra,0x3
    3f00:	1ec080e7          	jalr	492(ra) # 70e8 <chdir>
    3f04:	87aa                	mv	a5,a0
    3f06:	c385                	beqz	a5,3f26 <subdir+0x306>
    3f08:	fd843583          	ld	a1,-40(s0)
    3f0c:	00005517          	auipc	a0,0x5
    3f10:	db450513          	addi	a0,a0,-588 # 8cc0 <longjmp_1+0x1378>
    3f14:	00003097          	auipc	ra,0x3
    3f18:	692080e7          	jalr	1682(ra) # 75a6 <printf>
    3f1c:	4505                	li	a0,1
    3f1e:	00003097          	auipc	ra,0x3
    3f22:	15a080e7          	jalr	346(ra) # 7078 <exit>
    3f26:	00005517          	auipc	a0,0x5
    3f2a:	db250513          	addi	a0,a0,-590 # 8cd8 <longjmp_1+0x1390>
    3f2e:	00003097          	auipc	ra,0x3
    3f32:	1ba080e7          	jalr	442(ra) # 70e8 <chdir>
    3f36:	87aa                	mv	a5,a0
    3f38:	c385                	beqz	a5,3f58 <subdir+0x338>
    3f3a:	fd843583          	ld	a1,-40(s0)
    3f3e:	00005517          	auipc	a0,0x5
    3f42:	daa50513          	addi	a0,a0,-598 # 8ce8 <longjmp_1+0x13a0>
    3f46:	00003097          	auipc	ra,0x3
    3f4a:	660080e7          	jalr	1632(ra) # 75a6 <printf>
    3f4e:	4505                	li	a0,1
    3f50:	00003097          	auipc	ra,0x3
    3f54:	128080e7          	jalr	296(ra) # 7078 <exit>
    3f58:	00005517          	auipc	a0,0x5
    3f5c:	db050513          	addi	a0,a0,-592 # 8d08 <longjmp_1+0x13c0>
    3f60:	00003097          	auipc	ra,0x3
    3f64:	188080e7          	jalr	392(ra) # 70e8 <chdir>
    3f68:	87aa                	mv	a5,a0
    3f6a:	c385                	beqz	a5,3f8a <subdir+0x36a>
    3f6c:	fd843583          	ld	a1,-40(s0)
    3f70:	00005517          	auipc	a0,0x5
    3f74:	da850513          	addi	a0,a0,-600 # 8d18 <longjmp_1+0x13d0>
    3f78:	00003097          	auipc	ra,0x3
    3f7c:	62e080e7          	jalr	1582(ra) # 75a6 <printf>
    3f80:	4505                	li	a0,1
    3f82:	00003097          	auipc	ra,0x3
    3f86:	0f6080e7          	jalr	246(ra) # 7078 <exit>
    3f8a:	00005517          	auipc	a0,0x5
    3f8e:	dae50513          	addi	a0,a0,-594 # 8d38 <longjmp_1+0x13f0>
    3f92:	00003097          	auipc	ra,0x3
    3f96:	156080e7          	jalr	342(ra) # 70e8 <chdir>
    3f9a:	87aa                	mv	a5,a0
    3f9c:	c385                	beqz	a5,3fbc <subdir+0x39c>
    3f9e:	fd843583          	ld	a1,-40(s0)
    3fa2:	00005517          	auipc	a0,0x5
    3fa6:	d9e50513          	addi	a0,a0,-610 # 8d40 <longjmp_1+0x13f8>
    3faa:	00003097          	auipc	ra,0x3
    3fae:	5fc080e7          	jalr	1532(ra) # 75a6 <printf>
    3fb2:	4505                	li	a0,1
    3fb4:	00003097          	auipc	ra,0x3
    3fb8:	0c4080e7          	jalr	196(ra) # 7078 <exit>
    3fbc:	4581                	li	a1,0
    3fbe:	00005517          	auipc	a0,0x5
    3fc2:	c8250513          	addi	a0,a0,-894 # 8c40 <longjmp_1+0x12f8>
    3fc6:	00003097          	auipc	ra,0x3
    3fca:	0f2080e7          	jalr	242(ra) # 70b8 <open>
    3fce:	87aa                	mv	a5,a0
    3fd0:	fef42623          	sw	a5,-20(s0)
    3fd4:	fec42783          	lw	a5,-20(s0)
    3fd8:	2781                	sext.w	a5,a5
    3fda:	0207d163          	bgez	a5,3ffc <subdir+0x3dc>
    3fde:	fd843583          	ld	a1,-40(s0)
    3fe2:	00005517          	auipc	a0,0x5
    3fe6:	d7650513          	addi	a0,a0,-650 # 8d58 <longjmp_1+0x1410>
    3fea:	00003097          	auipc	ra,0x3
    3fee:	5bc080e7          	jalr	1468(ra) # 75a6 <printf>
    3ff2:	4505                	li	a0,1
    3ff4:	00003097          	auipc	ra,0x3
    3ff8:	084080e7          	jalr	132(ra) # 7078 <exit>
    3ffc:	fec42783          	lw	a5,-20(s0)
    4000:	660d                	lui	a2,0x3
    4002:	00006597          	auipc	a1,0x6
    4006:	0f658593          	addi	a1,a1,246 # a0f8 <buf>
    400a:	853e                	mv	a0,a5
    400c:	00003097          	auipc	ra,0x3
    4010:	084080e7          	jalr	132(ra) # 7090 <read>
    4014:	87aa                	mv	a5,a0
    4016:	873e                	mv	a4,a5
    4018:	4789                	li	a5,2
    401a:	02f70163          	beq	a4,a5,403c <subdir+0x41c>
    401e:	fd843583          	ld	a1,-40(s0)
    4022:	00005517          	auipc	a0,0x5
    4026:	d5650513          	addi	a0,a0,-682 # 8d78 <longjmp_1+0x1430>
    402a:	00003097          	auipc	ra,0x3
    402e:	57c080e7          	jalr	1404(ra) # 75a6 <printf>
    4032:	4505                	li	a0,1
    4034:	00003097          	auipc	ra,0x3
    4038:	044080e7          	jalr	68(ra) # 7078 <exit>
    403c:	fec42783          	lw	a5,-20(s0)
    4040:	853e                	mv	a0,a5
    4042:	00003097          	auipc	ra,0x3
    4046:	05e080e7          	jalr	94(ra) # 70a0 <close>
    404a:	4581                	li	a1,0
    404c:	00005517          	auipc	a0,0x5
    4050:	b6c50513          	addi	a0,a0,-1172 # 8bb8 <longjmp_1+0x1270>
    4054:	00003097          	auipc	ra,0x3
    4058:	064080e7          	jalr	100(ra) # 70b8 <open>
    405c:	87aa                	mv	a5,a0
    405e:	0207c163          	bltz	a5,4080 <subdir+0x460>
    4062:	fd843583          	ld	a1,-40(s0)
    4066:	00005517          	auipc	a0,0x5
    406a:	d3250513          	addi	a0,a0,-718 # 8d98 <longjmp_1+0x1450>
    406e:	00003097          	auipc	ra,0x3
    4072:	538080e7          	jalr	1336(ra) # 75a6 <printf>
    4076:	4505                	li	a0,1
    4078:	00003097          	auipc	ra,0x3
    407c:	000080e7          	jalr	ra # 7078 <exit>
    4080:	20200593          	li	a1,514
    4084:	00005517          	auipc	a0,0x5
    4088:	d4450513          	addi	a0,a0,-700 # 8dc8 <longjmp_1+0x1480>
    408c:	00003097          	auipc	ra,0x3
    4090:	02c080e7          	jalr	44(ra) # 70b8 <open>
    4094:	87aa                	mv	a5,a0
    4096:	0207c163          	bltz	a5,40b8 <subdir+0x498>
    409a:	fd843583          	ld	a1,-40(s0)
    409e:	00005517          	auipc	a0,0x5
    40a2:	d3a50513          	addi	a0,a0,-710 # 8dd8 <longjmp_1+0x1490>
    40a6:	00003097          	auipc	ra,0x3
    40aa:	500080e7          	jalr	1280(ra) # 75a6 <printf>
    40ae:	4505                	li	a0,1
    40b0:	00003097          	auipc	ra,0x3
    40b4:	fc8080e7          	jalr	-56(ra) # 7078 <exit>
    40b8:	20200593          	li	a1,514
    40bc:	00005517          	auipc	a0,0x5
    40c0:	d3c50513          	addi	a0,a0,-708 # 8df8 <longjmp_1+0x14b0>
    40c4:	00003097          	auipc	ra,0x3
    40c8:	ff4080e7          	jalr	-12(ra) # 70b8 <open>
    40cc:	87aa                	mv	a5,a0
    40ce:	0207c163          	bltz	a5,40f0 <subdir+0x4d0>
    40d2:	fd843583          	ld	a1,-40(s0)
    40d6:	00005517          	auipc	a0,0x5
    40da:	d3250513          	addi	a0,a0,-718 # 8e08 <longjmp_1+0x14c0>
    40de:	00003097          	auipc	ra,0x3
    40e2:	4c8080e7          	jalr	1224(ra) # 75a6 <printf>
    40e6:	4505                	li	a0,1
    40e8:	00003097          	auipc	ra,0x3
    40ec:	f90080e7          	jalr	-112(ra) # 7078 <exit>
    40f0:	20000593          	li	a1,512
    40f4:	00005517          	auipc	a0,0x5
    40f8:	a2450513          	addi	a0,a0,-1500 # 8b18 <longjmp_1+0x11d0>
    40fc:	00003097          	auipc	ra,0x3
    4100:	fbc080e7          	jalr	-68(ra) # 70b8 <open>
    4104:	87aa                	mv	a5,a0
    4106:	0207c163          	bltz	a5,4128 <subdir+0x508>
    410a:	fd843583          	ld	a1,-40(s0)
    410e:	00005517          	auipc	a0,0x5
    4112:	d1a50513          	addi	a0,a0,-742 # 8e28 <longjmp_1+0x14e0>
    4116:	00003097          	auipc	ra,0x3
    411a:	490080e7          	jalr	1168(ra) # 75a6 <printf>
    411e:	4505                	li	a0,1
    4120:	00003097          	auipc	ra,0x3
    4124:	f58080e7          	jalr	-168(ra) # 7078 <exit>
    4128:	4589                	li	a1,2
    412a:	00005517          	auipc	a0,0x5
    412e:	9ee50513          	addi	a0,a0,-1554 # 8b18 <longjmp_1+0x11d0>
    4132:	00003097          	auipc	ra,0x3
    4136:	f86080e7          	jalr	-122(ra) # 70b8 <open>
    413a:	87aa                	mv	a5,a0
    413c:	0207c163          	bltz	a5,415e <subdir+0x53e>
    4140:	fd843583          	ld	a1,-40(s0)
    4144:	00005517          	auipc	a0,0x5
    4148:	d0450513          	addi	a0,a0,-764 # 8e48 <longjmp_1+0x1500>
    414c:	00003097          	auipc	ra,0x3
    4150:	45a080e7          	jalr	1114(ra) # 75a6 <printf>
    4154:	4505                	li	a0,1
    4156:	00003097          	auipc	ra,0x3
    415a:	f22080e7          	jalr	-222(ra) # 7078 <exit>
    415e:	4585                	li	a1,1
    4160:	00005517          	auipc	a0,0x5
    4164:	9b850513          	addi	a0,a0,-1608 # 8b18 <longjmp_1+0x11d0>
    4168:	00003097          	auipc	ra,0x3
    416c:	f50080e7          	jalr	-176(ra) # 70b8 <open>
    4170:	87aa                	mv	a5,a0
    4172:	0207c163          	bltz	a5,4194 <subdir+0x574>
    4176:	fd843583          	ld	a1,-40(s0)
    417a:	00005517          	auipc	a0,0x5
    417e:	cee50513          	addi	a0,a0,-786 # 8e68 <longjmp_1+0x1520>
    4182:	00003097          	auipc	ra,0x3
    4186:	424080e7          	jalr	1060(ra) # 75a6 <printf>
    418a:	4505                	li	a0,1
    418c:	00003097          	auipc	ra,0x3
    4190:	eec080e7          	jalr	-276(ra) # 7078 <exit>
    4194:	00005597          	auipc	a1,0x5
    4198:	cf458593          	addi	a1,a1,-780 # 8e88 <longjmp_1+0x1540>
    419c:	00005517          	auipc	a0,0x5
    41a0:	c2c50513          	addi	a0,a0,-980 # 8dc8 <longjmp_1+0x1480>
    41a4:	00003097          	auipc	ra,0x3
    41a8:	f34080e7          	jalr	-204(ra) # 70d8 <link>
    41ac:	87aa                	mv	a5,a0
    41ae:	e385                	bnez	a5,41ce <subdir+0x5ae>
    41b0:	fd843583          	ld	a1,-40(s0)
    41b4:	00005517          	auipc	a0,0x5
    41b8:	ce450513          	addi	a0,a0,-796 # 8e98 <longjmp_1+0x1550>
    41bc:	00003097          	auipc	ra,0x3
    41c0:	3ea080e7          	jalr	1002(ra) # 75a6 <printf>
    41c4:	4505                	li	a0,1
    41c6:	00003097          	auipc	ra,0x3
    41ca:	eb2080e7          	jalr	-334(ra) # 7078 <exit>
    41ce:	00005597          	auipc	a1,0x5
    41d2:	cba58593          	addi	a1,a1,-838 # 8e88 <longjmp_1+0x1540>
    41d6:	00005517          	auipc	a0,0x5
    41da:	c2250513          	addi	a0,a0,-990 # 8df8 <longjmp_1+0x14b0>
    41de:	00003097          	auipc	ra,0x3
    41e2:	efa080e7          	jalr	-262(ra) # 70d8 <link>
    41e6:	87aa                	mv	a5,a0
    41e8:	e385                	bnez	a5,4208 <subdir+0x5e8>
    41ea:	fd843583          	ld	a1,-40(s0)
    41ee:	00005517          	auipc	a0,0x5
    41f2:	cd250513          	addi	a0,a0,-814 # 8ec0 <longjmp_1+0x1578>
    41f6:	00003097          	auipc	ra,0x3
    41fa:	3b0080e7          	jalr	944(ra) # 75a6 <printf>
    41fe:	4505                	li	a0,1
    4200:	00003097          	auipc	ra,0x3
    4204:	e78080e7          	jalr	-392(ra) # 7078 <exit>
    4208:	00005597          	auipc	a1,0x5
    420c:	a3858593          	addi	a1,a1,-1480 # 8c40 <longjmp_1+0x12f8>
    4210:	00005517          	auipc	a0,0x5
    4214:	92850513          	addi	a0,a0,-1752 # 8b38 <longjmp_1+0x11f0>
    4218:	00003097          	auipc	ra,0x3
    421c:	ec0080e7          	jalr	-320(ra) # 70d8 <link>
    4220:	87aa                	mv	a5,a0
    4222:	e385                	bnez	a5,4242 <subdir+0x622>
    4224:	fd843583          	ld	a1,-40(s0)
    4228:	00005517          	auipc	a0,0x5
    422c:	cc050513          	addi	a0,a0,-832 # 8ee8 <longjmp_1+0x15a0>
    4230:	00003097          	auipc	ra,0x3
    4234:	376080e7          	jalr	886(ra) # 75a6 <printf>
    4238:	4505                	li	a0,1
    423a:	00003097          	auipc	ra,0x3
    423e:	e3e080e7          	jalr	-450(ra) # 7078 <exit>
    4242:	00005517          	auipc	a0,0x5
    4246:	b8650513          	addi	a0,a0,-1146 # 8dc8 <longjmp_1+0x1480>
    424a:	00003097          	auipc	ra,0x3
    424e:	e96080e7          	jalr	-362(ra) # 70e0 <mkdir>
    4252:	87aa                	mv	a5,a0
    4254:	e385                	bnez	a5,4274 <subdir+0x654>
    4256:	fd843583          	ld	a1,-40(s0)
    425a:	00005517          	auipc	a0,0x5
    425e:	cb650513          	addi	a0,a0,-842 # 8f10 <longjmp_1+0x15c8>
    4262:	00003097          	auipc	ra,0x3
    4266:	344080e7          	jalr	836(ra) # 75a6 <printf>
    426a:	4505                	li	a0,1
    426c:	00003097          	auipc	ra,0x3
    4270:	e0c080e7          	jalr	-500(ra) # 7078 <exit>
    4274:	00005517          	auipc	a0,0x5
    4278:	b8450513          	addi	a0,a0,-1148 # 8df8 <longjmp_1+0x14b0>
    427c:	00003097          	auipc	ra,0x3
    4280:	e64080e7          	jalr	-412(ra) # 70e0 <mkdir>
    4284:	87aa                	mv	a5,a0
    4286:	e385                	bnez	a5,42a6 <subdir+0x686>
    4288:	fd843583          	ld	a1,-40(s0)
    428c:	00005517          	auipc	a0,0x5
    4290:	ca450513          	addi	a0,a0,-860 # 8f30 <longjmp_1+0x15e8>
    4294:	00003097          	auipc	ra,0x3
    4298:	312080e7          	jalr	786(ra) # 75a6 <printf>
    429c:	4505                	li	a0,1
    429e:	00003097          	auipc	ra,0x3
    42a2:	dda080e7          	jalr	-550(ra) # 7078 <exit>
    42a6:	00005517          	auipc	a0,0x5
    42aa:	99a50513          	addi	a0,a0,-1638 # 8c40 <longjmp_1+0x12f8>
    42ae:	00003097          	auipc	ra,0x3
    42b2:	e32080e7          	jalr	-462(ra) # 70e0 <mkdir>
    42b6:	87aa                	mv	a5,a0
    42b8:	e385                	bnez	a5,42d8 <subdir+0x6b8>
    42ba:	fd843583          	ld	a1,-40(s0)
    42be:	00005517          	auipc	a0,0x5
    42c2:	c9250513          	addi	a0,a0,-878 # 8f50 <longjmp_1+0x1608>
    42c6:	00003097          	auipc	ra,0x3
    42ca:	2e0080e7          	jalr	736(ra) # 75a6 <printf>
    42ce:	4505                	li	a0,1
    42d0:	00003097          	auipc	ra,0x3
    42d4:	da8080e7          	jalr	-600(ra) # 7078 <exit>
    42d8:	00005517          	auipc	a0,0x5
    42dc:	b2050513          	addi	a0,a0,-1248 # 8df8 <longjmp_1+0x14b0>
    42e0:	00003097          	auipc	ra,0x3
    42e4:	de8080e7          	jalr	-536(ra) # 70c8 <unlink>
    42e8:	87aa                	mv	a5,a0
    42ea:	e385                	bnez	a5,430a <subdir+0x6ea>
    42ec:	fd843583          	ld	a1,-40(s0)
    42f0:	00005517          	auipc	a0,0x5
    42f4:	c8850513          	addi	a0,a0,-888 # 8f78 <longjmp_1+0x1630>
    42f8:	00003097          	auipc	ra,0x3
    42fc:	2ae080e7          	jalr	686(ra) # 75a6 <printf>
    4300:	4505                	li	a0,1
    4302:	00003097          	auipc	ra,0x3
    4306:	d76080e7          	jalr	-650(ra) # 7078 <exit>
    430a:	00005517          	auipc	a0,0x5
    430e:	abe50513          	addi	a0,a0,-1346 # 8dc8 <longjmp_1+0x1480>
    4312:	00003097          	auipc	ra,0x3
    4316:	db6080e7          	jalr	-586(ra) # 70c8 <unlink>
    431a:	87aa                	mv	a5,a0
    431c:	e385                	bnez	a5,433c <subdir+0x71c>
    431e:	fd843583          	ld	a1,-40(s0)
    4322:	00005517          	auipc	a0,0x5
    4326:	c7650513          	addi	a0,a0,-906 # 8f98 <longjmp_1+0x1650>
    432a:	00003097          	auipc	ra,0x3
    432e:	27c080e7          	jalr	636(ra) # 75a6 <printf>
    4332:	4505                	li	a0,1
    4334:	00003097          	auipc	ra,0x3
    4338:	d44080e7          	jalr	-700(ra) # 7078 <exit>
    433c:	00004517          	auipc	a0,0x4
    4340:	7fc50513          	addi	a0,a0,2044 # 8b38 <longjmp_1+0x11f0>
    4344:	00003097          	auipc	ra,0x3
    4348:	da4080e7          	jalr	-604(ra) # 70e8 <chdir>
    434c:	87aa                	mv	a5,a0
    434e:	e385                	bnez	a5,436e <subdir+0x74e>
    4350:	fd843583          	ld	a1,-40(s0)
    4354:	00005517          	auipc	a0,0x5
    4358:	c6450513          	addi	a0,a0,-924 # 8fb8 <longjmp_1+0x1670>
    435c:	00003097          	auipc	ra,0x3
    4360:	24a080e7          	jalr	586(ra) # 75a6 <printf>
    4364:	4505                	li	a0,1
    4366:	00003097          	auipc	ra,0x3
    436a:	d12080e7          	jalr	-750(ra) # 7078 <exit>
    436e:	00005517          	auipc	a0,0x5
    4372:	c6a50513          	addi	a0,a0,-918 # 8fd8 <longjmp_1+0x1690>
    4376:	00003097          	auipc	ra,0x3
    437a:	d72080e7          	jalr	-654(ra) # 70e8 <chdir>
    437e:	87aa                	mv	a5,a0
    4380:	e385                	bnez	a5,43a0 <subdir+0x780>
    4382:	fd843583          	ld	a1,-40(s0)
    4386:	00005517          	auipc	a0,0x5
    438a:	c5a50513          	addi	a0,a0,-934 # 8fe0 <longjmp_1+0x1698>
    438e:	00003097          	auipc	ra,0x3
    4392:	218080e7          	jalr	536(ra) # 75a6 <printf>
    4396:	4505                	li	a0,1
    4398:	00003097          	auipc	ra,0x3
    439c:	ce0080e7          	jalr	-800(ra) # 7078 <exit>
    43a0:	00005517          	auipc	a0,0x5
    43a4:	8a050513          	addi	a0,a0,-1888 # 8c40 <longjmp_1+0x12f8>
    43a8:	00003097          	auipc	ra,0x3
    43ac:	d20080e7          	jalr	-736(ra) # 70c8 <unlink>
    43b0:	87aa                	mv	a5,a0
    43b2:	c385                	beqz	a5,43d2 <subdir+0x7b2>
    43b4:	fd843583          	ld	a1,-40(s0)
    43b8:	00005517          	auipc	a0,0x5
    43bc:	8c050513          	addi	a0,a0,-1856 # 8c78 <longjmp_1+0x1330>
    43c0:	00003097          	auipc	ra,0x3
    43c4:	1e6080e7          	jalr	486(ra) # 75a6 <printf>
    43c8:	4505                	li	a0,1
    43ca:	00003097          	auipc	ra,0x3
    43ce:	cae080e7          	jalr	-850(ra) # 7078 <exit>
    43d2:	00004517          	auipc	a0,0x4
    43d6:	76650513          	addi	a0,a0,1894 # 8b38 <longjmp_1+0x11f0>
    43da:	00003097          	auipc	ra,0x3
    43de:	cee080e7          	jalr	-786(ra) # 70c8 <unlink>
    43e2:	87aa                	mv	a5,a0
    43e4:	c385                	beqz	a5,4404 <subdir+0x7e4>
    43e6:	fd843583          	ld	a1,-40(s0)
    43ea:	00005517          	auipc	a0,0x5
    43ee:	c1650513          	addi	a0,a0,-1002 # 9000 <longjmp_1+0x16b8>
    43f2:	00003097          	auipc	ra,0x3
    43f6:	1b4080e7          	jalr	436(ra) # 75a6 <printf>
    43fa:	4505                	li	a0,1
    43fc:	00003097          	auipc	ra,0x3
    4400:	c7c080e7          	jalr	-900(ra) # 7078 <exit>
    4404:	00004517          	auipc	a0,0x4
    4408:	71450513          	addi	a0,a0,1812 # 8b18 <longjmp_1+0x11d0>
    440c:	00003097          	auipc	ra,0x3
    4410:	cbc080e7          	jalr	-836(ra) # 70c8 <unlink>
    4414:	87aa                	mv	a5,a0
    4416:	e385                	bnez	a5,4436 <subdir+0x816>
    4418:	fd843583          	ld	a1,-40(s0)
    441c:	00005517          	auipc	a0,0x5
    4420:	c0450513          	addi	a0,a0,-1020 # 9020 <longjmp_1+0x16d8>
    4424:	00003097          	auipc	ra,0x3
    4428:	182080e7          	jalr	386(ra) # 75a6 <printf>
    442c:	4505                	li	a0,1
    442e:	00003097          	auipc	ra,0x3
    4432:	c4a080e7          	jalr	-950(ra) # 7078 <exit>
    4436:	00005517          	auipc	a0,0x5
    443a:	c1250513          	addi	a0,a0,-1006 # 9048 <longjmp_1+0x1700>
    443e:	00003097          	auipc	ra,0x3
    4442:	c8a080e7          	jalr	-886(ra) # 70c8 <unlink>
    4446:	87aa                	mv	a5,a0
    4448:	0207d163          	bgez	a5,446a <subdir+0x84a>
    444c:	fd843583          	ld	a1,-40(s0)
    4450:	00005517          	auipc	a0,0x5
    4454:	c0050513          	addi	a0,a0,-1024 # 9050 <longjmp_1+0x1708>
    4458:	00003097          	auipc	ra,0x3
    445c:	14e080e7          	jalr	334(ra) # 75a6 <printf>
    4460:	4505                	li	a0,1
    4462:	00003097          	auipc	ra,0x3
    4466:	c16080e7          	jalr	-1002(ra) # 7078 <exit>
    446a:	00004517          	auipc	a0,0x4
    446e:	6ae50513          	addi	a0,a0,1710 # 8b18 <longjmp_1+0x11d0>
    4472:	00003097          	auipc	ra,0x3
    4476:	c56080e7          	jalr	-938(ra) # 70c8 <unlink>
    447a:	87aa                	mv	a5,a0
    447c:	0207d163          	bgez	a5,449e <subdir+0x87e>
    4480:	fd843583          	ld	a1,-40(s0)
    4484:	00005517          	auipc	a0,0x5
    4488:	bec50513          	addi	a0,a0,-1044 # 9070 <longjmp_1+0x1728>
    448c:	00003097          	auipc	ra,0x3
    4490:	11a080e7          	jalr	282(ra) # 75a6 <printf>
    4494:	4505                	li	a0,1
    4496:	00003097          	auipc	ra,0x3
    449a:	be2080e7          	jalr	-1054(ra) # 7078 <exit>
    449e:	0001                	nop
    44a0:	70a2                	ld	ra,40(sp)
    44a2:	7402                	ld	s0,32(sp)
    44a4:	6145                	addi	sp,sp,48
    44a6:	8082                	ret

00000000000044a8 <bigwrite>:
    44a8:	7179                	addi	sp,sp,-48
    44aa:	f406                	sd	ra,40(sp)
    44ac:	f022                	sd	s0,32(sp)
    44ae:	1800                	addi	s0,sp,48
    44b0:	fca43c23          	sd	a0,-40(s0)
    44b4:	00003517          	auipc	a0,0x3
    44b8:	66c50513          	addi	a0,a0,1644 # 7b20 <longjmp_1+0x1d8>
    44bc:	00003097          	auipc	ra,0x3
    44c0:	c0c080e7          	jalr	-1012(ra) # 70c8 <unlink>
    44c4:	1f300793          	li	a5,499
    44c8:	fef42623          	sw	a5,-20(s0)
    44cc:	a0e5                	j	45b4 <bigwrite+0x10c>
    44ce:	20200593          	li	a1,514
    44d2:	00003517          	auipc	a0,0x3
    44d6:	64e50513          	addi	a0,a0,1614 # 7b20 <longjmp_1+0x1d8>
    44da:	00003097          	auipc	ra,0x3
    44de:	bde080e7          	jalr	-1058(ra) # 70b8 <open>
    44e2:	87aa                	mv	a5,a0
    44e4:	fef42223          	sw	a5,-28(s0)
    44e8:	fe442783          	lw	a5,-28(s0)
    44ec:	2781                	sext.w	a5,a5
    44ee:	0207d163          	bgez	a5,4510 <bigwrite+0x68>
    44f2:	fd843583          	ld	a1,-40(s0)
    44f6:	00005517          	auipc	a0,0x5
    44fa:	b9250513          	addi	a0,a0,-1134 # 9088 <longjmp_1+0x1740>
    44fe:	00003097          	auipc	ra,0x3
    4502:	0a8080e7          	jalr	168(ra) # 75a6 <printf>
    4506:	4505                	li	a0,1
    4508:	00003097          	auipc	ra,0x3
    450c:	b70080e7          	jalr	-1168(ra) # 7078 <exit>
    4510:	fe042423          	sw	zero,-24(s0)
    4514:	a0a5                	j	457c <bigwrite+0xd4>
    4516:	fec42703          	lw	a4,-20(s0)
    451a:	fe442783          	lw	a5,-28(s0)
    451e:	863a                	mv	a2,a4
    4520:	00006597          	auipc	a1,0x6
    4524:	bd858593          	addi	a1,a1,-1064 # a0f8 <buf>
    4528:	853e                	mv	a0,a5
    452a:	00003097          	auipc	ra,0x3
    452e:	b6e080e7          	jalr	-1170(ra) # 7098 <write>
    4532:	87aa                	mv	a5,a0
    4534:	fef42023          	sw	a5,-32(s0)
    4538:	fe042703          	lw	a4,-32(s0)
    453c:	fec42783          	lw	a5,-20(s0)
    4540:	2701                	sext.w	a4,a4
    4542:	2781                	sext.w	a5,a5
    4544:	02f70763          	beq	a4,a5,4572 <bigwrite+0xca>
    4548:	fe042703          	lw	a4,-32(s0)
    454c:	fec42783          	lw	a5,-20(s0)
    4550:	86ba                	mv	a3,a4
    4552:	863e                	mv	a2,a5
    4554:	fd843583          	ld	a1,-40(s0)
    4558:	00005517          	auipc	a0,0x5
    455c:	b5050513          	addi	a0,a0,-1200 # 90a8 <longjmp_1+0x1760>
    4560:	00003097          	auipc	ra,0x3
    4564:	046080e7          	jalr	70(ra) # 75a6 <printf>
    4568:	4505                	li	a0,1
    456a:	00003097          	auipc	ra,0x3
    456e:	b0e080e7          	jalr	-1266(ra) # 7078 <exit>
    4572:	fe842783          	lw	a5,-24(s0)
    4576:	2785                	addiw	a5,a5,1
    4578:	fef42423          	sw	a5,-24(s0)
    457c:	fe842783          	lw	a5,-24(s0)
    4580:	0007871b          	sext.w	a4,a5
    4584:	4785                	li	a5,1
    4586:	f8e7d8e3          	bge	a5,a4,4516 <bigwrite+0x6e>
    458a:	fe442783          	lw	a5,-28(s0)
    458e:	853e                	mv	a0,a5
    4590:	00003097          	auipc	ra,0x3
    4594:	b10080e7          	jalr	-1264(ra) # 70a0 <close>
    4598:	00003517          	auipc	a0,0x3
    459c:	58850513          	addi	a0,a0,1416 # 7b20 <longjmp_1+0x1d8>
    45a0:	00003097          	auipc	ra,0x3
    45a4:	b28080e7          	jalr	-1240(ra) # 70c8 <unlink>
    45a8:	fec42783          	lw	a5,-20(s0)
    45ac:	1d77879b          	addiw	a5,a5,471
    45b0:	fef42623          	sw	a5,-20(s0)
    45b4:	fec42783          	lw	a5,-20(s0)
    45b8:	0007871b          	sext.w	a4,a5
    45bc:	678d                	lui	a5,0x3
    45be:	f0f748e3          	blt	a4,a5,44ce <bigwrite+0x26>
    45c2:	0001                	nop
    45c4:	0001                	nop
    45c6:	70a2                	ld	ra,40(sp)
    45c8:	7402                	ld	s0,32(sp)
    45ca:	6145                	addi	sp,sp,48
    45cc:	8082                	ret

00000000000045ce <manywrites>:
    45ce:	711d                	addi	sp,sp,-96
    45d0:	ec86                	sd	ra,88(sp)
    45d2:	e8a2                	sd	s0,80(sp)
    45d4:	1080                	addi	s0,sp,96
    45d6:	faa43423          	sd	a0,-88(s0)
    45da:	4791                	li	a5,4
    45dc:	fcf42e23          	sw	a5,-36(s0)
    45e0:	47f9                	li	a5,30
    45e2:	fcf42c23          	sw	a5,-40(s0)
    45e6:	fe042623          	sw	zero,-20(s0)
    45ea:	aa49                	j	477c <manywrites+0x1ae>
    45ec:	00003097          	auipc	ra,0x3
    45f0:	a84080e7          	jalr	-1404(ra) # 7070 <fork>
    45f4:	87aa                	mv	a5,a0
    45f6:	fcf42a23          	sw	a5,-44(s0)
    45fa:	fd442783          	lw	a5,-44(s0)
    45fe:	2781                	sext.w	a5,a5
    4600:	0007df63          	bgez	a5,461e <manywrites+0x50>
    4604:	00004517          	auipc	a0,0x4
    4608:	87c50513          	addi	a0,a0,-1924 # 7e80 <longjmp_1+0x538>
    460c:	00003097          	auipc	ra,0x3
    4610:	f9a080e7          	jalr	-102(ra) # 75a6 <printf>
    4614:	4505                	li	a0,1
    4616:	00003097          	auipc	ra,0x3
    461a:	a62080e7          	jalr	-1438(ra) # 7078 <exit>
    461e:	fd442783          	lw	a5,-44(s0)
