
kernel/kernel:     file format elf64-littleriscv


Disassembly of section .text:

0000000080000000 <_entry>:
    80000000:	0000c117          	auipc	sp,0xc
    80000004:	89013103          	ld	sp,-1904(sp) # 8000b890 <_GLOBAL_OFFSET_TABLE_+0x8>
    80000008:	6505                	lui	a0,0x1
    8000000a:	f14025f3          	csrr	a1,mhartid
    8000000e:	0585                	addi	a1,a1,1
    80000010:	02b50533          	mul	a0,a0,a1
    80000014:	912a                	add	sp,sp,a0
    80000016:	170000ef          	jal	ra,80000186 <start>

000000008000001a <spin>:
    8000001a:	a001                	j	8000001a <spin>

000000008000001c <r_mhartid>:
    8000001c:	1101                	addi	sp,sp,-32
    8000001e:	ec22                	sd	s0,24(sp)
    80000020:	1000                	addi	s0,sp,32
    80000022:	f14027f3          	csrr	a5,mhartid
    80000026:	fef43423          	sd	a5,-24(s0)
    8000002a:	fe843783          	ld	a5,-24(s0)
    8000002e:	853e                	mv	a0,a5
    80000030:	6462                	ld	s0,24(sp)
    80000032:	6105                	addi	sp,sp,32
    80000034:	8082                	ret

0000000080000036 <r_mstatus>:
    80000036:	1101                	addi	sp,sp,-32
    80000038:	ec22                	sd	s0,24(sp)
    8000003a:	1000                	addi	s0,sp,32
    8000003c:	300027f3          	csrr	a5,mstatus
    80000040:	fef43423          	sd	a5,-24(s0)
    80000044:	fe843783          	ld	a5,-24(s0)
    80000048:	853e                	mv	a0,a5
    8000004a:	6462                	ld	s0,24(sp)
    8000004c:	6105                	addi	sp,sp,32
    8000004e:	8082                	ret

0000000080000050 <w_mstatus>:
    80000050:	1101                	addi	sp,sp,-32
    80000052:	ec22                	sd	s0,24(sp)
    80000054:	1000                	addi	s0,sp,32
    80000056:	fea43423          	sd	a0,-24(s0)
    8000005a:	fe843783          	ld	a5,-24(s0)
    8000005e:	30079073          	csrw	mstatus,a5
    80000062:	0001                	nop
    80000064:	6462                	ld	s0,24(sp)
    80000066:	6105                	addi	sp,sp,32
    80000068:	8082                	ret

000000008000006a <w_mepc>:
    8000006a:	1101                	addi	sp,sp,-32
    8000006c:	ec22                	sd	s0,24(sp)
    8000006e:	1000                	addi	s0,sp,32
    80000070:	fea43423          	sd	a0,-24(s0)
    80000074:	fe843783          	ld	a5,-24(s0)
    80000078:	34179073          	csrw	mepc,a5
    8000007c:	0001                	nop
    8000007e:	6462                	ld	s0,24(sp)
    80000080:	6105                	addi	sp,sp,32
    80000082:	8082                	ret

0000000080000084 <r_sie>:
    80000084:	1101                	addi	sp,sp,-32
    80000086:	ec22                	sd	s0,24(sp)
    80000088:	1000                	addi	s0,sp,32
    8000008a:	104027f3          	csrr	a5,sie
    8000008e:	fef43423          	sd	a5,-24(s0)
    80000092:	fe843783          	ld	a5,-24(s0)
    80000096:	853e                	mv	a0,a5
    80000098:	6462                	ld	s0,24(sp)
    8000009a:	6105                	addi	sp,sp,32
    8000009c:	8082                	ret

000000008000009e <w_sie>:
    8000009e:	1101                	addi	sp,sp,-32
    800000a0:	ec22                	sd	s0,24(sp)
    800000a2:	1000                	addi	s0,sp,32
    800000a4:	fea43423          	sd	a0,-24(s0)
    800000a8:	fe843783          	ld	a5,-24(s0)
    800000ac:	10479073          	csrw	sie,a5
    800000b0:	0001                	nop
    800000b2:	6462                	ld	s0,24(sp)
    800000b4:	6105                	addi	sp,sp,32
    800000b6:	8082                	ret

00000000800000b8 <r_mie>:
    800000b8:	1101                	addi	sp,sp,-32
    800000ba:	ec22                	sd	s0,24(sp)
    800000bc:	1000                	addi	s0,sp,32
    800000be:	304027f3          	csrr	a5,mie
    800000c2:	fef43423          	sd	a5,-24(s0)
    800000c6:	fe843783          	ld	a5,-24(s0)
    800000ca:	853e                	mv	a0,a5
    800000cc:	6462                	ld	s0,24(sp)
    800000ce:	6105                	addi	sp,sp,32
    800000d0:	8082                	ret

00000000800000d2 <w_mie>:
    800000d2:	1101                	addi	sp,sp,-32
    800000d4:	ec22                	sd	s0,24(sp)
    800000d6:	1000                	addi	s0,sp,32
    800000d8:	fea43423          	sd	a0,-24(s0)
    800000dc:	fe843783          	ld	a5,-24(s0)
    800000e0:	30479073          	csrw	mie,a5
    800000e4:	0001                	nop
    800000e6:	6462                	ld	s0,24(sp)
    800000e8:	6105                	addi	sp,sp,32
    800000ea:	8082                	ret

00000000800000ec <w_medeleg>:
    800000ec:	1101                	addi	sp,sp,-32
    800000ee:	ec22                	sd	s0,24(sp)
    800000f0:	1000                	addi	s0,sp,32
    800000f2:	fea43423          	sd	a0,-24(s0)
    800000f6:	fe843783          	ld	a5,-24(s0)
    800000fa:	30279073          	csrw	medeleg,a5
    800000fe:	0001                	nop
    80000100:	6462                	ld	s0,24(sp)
    80000102:	6105                	addi	sp,sp,32
    80000104:	8082                	ret

0000000080000106 <w_mideleg>:
    80000106:	1101                	addi	sp,sp,-32
    80000108:	ec22                	sd	s0,24(sp)
    8000010a:	1000                	addi	s0,sp,32
    8000010c:	fea43423          	sd	a0,-24(s0)
    80000110:	fe843783          	ld	a5,-24(s0)
    80000114:	30379073          	csrw	mideleg,a5
    80000118:	0001                	nop
    8000011a:	6462                	ld	s0,24(sp)
    8000011c:	6105                	addi	sp,sp,32
    8000011e:	8082                	ret

0000000080000120 <w_mtvec>:
    80000120:	1101                	addi	sp,sp,-32
    80000122:	ec22                	sd	s0,24(sp)
    80000124:	1000                	addi	s0,sp,32
    80000126:	fea43423          	sd	a0,-24(s0)
    8000012a:	fe843783          	ld	a5,-24(s0)
    8000012e:	30579073          	csrw	mtvec,a5
    80000132:	0001                	nop
    80000134:	6462                	ld	s0,24(sp)
    80000136:	6105                	addi	sp,sp,32
    80000138:	8082                	ret

000000008000013a <w_satp>:
    8000013a:	1101                	addi	sp,sp,-32
    8000013c:	ec22                	sd	s0,24(sp)
    8000013e:	1000                	addi	s0,sp,32
    80000140:	fea43423          	sd	a0,-24(s0)
    80000144:	fe843783          	ld	a5,-24(s0)
    80000148:	18079073          	csrw	satp,a5
    8000014c:	0001                	nop
    8000014e:	6462                	ld	s0,24(sp)
    80000150:	6105                	addi	sp,sp,32
    80000152:	8082                	ret

0000000080000154 <w_mscratch>:
    80000154:	1101                	addi	sp,sp,-32
    80000156:	ec22                	sd	s0,24(sp)
    80000158:	1000                	addi	s0,sp,32
    8000015a:	fea43423          	sd	a0,-24(s0)
    8000015e:	fe843783          	ld	a5,-24(s0)
    80000162:	34079073          	csrw	mscratch,a5
    80000166:	0001                	nop
    80000168:	6462                	ld	s0,24(sp)
    8000016a:	6105                	addi	sp,sp,32
    8000016c:	8082                	ret

000000008000016e <w_tp>:
    8000016e:	1101                	addi	sp,sp,-32
    80000170:	ec22                	sd	s0,24(sp)
    80000172:	1000                	addi	s0,sp,32
    80000174:	fea43423          	sd	a0,-24(s0)
    80000178:	fe843783          	ld	a5,-24(s0)
    8000017c:	823e                	mv	tp,a5
    8000017e:	0001                	nop
    80000180:	6462                	ld	s0,24(sp)
    80000182:	6105                	addi	sp,sp,32
    80000184:	8082                	ret

0000000080000186 <start>:
    80000186:	1101                	addi	sp,sp,-32
    80000188:	ec06                	sd	ra,24(sp)
    8000018a:	e822                	sd	s0,16(sp)
    8000018c:	1000                	addi	s0,sp,32
    8000018e:	00000097          	auipc	ra,0x0
    80000192:	ea8080e7          	jalr	-344(ra) # 80000036 <r_mstatus>
    80000196:	fea43423          	sd	a0,-24(s0)
    8000019a:	fe843703          	ld	a4,-24(s0)
    8000019e:	77f9                	lui	a5,0xffffe
    800001a0:	7ff78793          	addi	a5,a5,2047 # ffffffffffffe7ff <end+0xffffffff7ffd57ff>
    800001a4:	8ff9                	and	a5,a5,a4
    800001a6:	fef43423          	sd	a5,-24(s0)
    800001aa:	fe843703          	ld	a4,-24(s0)
    800001ae:	6785                	lui	a5,0x1
    800001b0:	80078793          	addi	a5,a5,-2048 # 800 <_entry-0x7ffff800>
    800001b4:	8fd9                	or	a5,a5,a4
    800001b6:	fef43423          	sd	a5,-24(s0)
    800001ba:	fe843503          	ld	a0,-24(s0)
    800001be:	00000097          	auipc	ra,0x0
    800001c2:	e92080e7          	jalr	-366(ra) # 80000050 <w_mstatus>
    800001c6:	00001797          	auipc	a5,0x1
    800001ca:	63478793          	addi	a5,a5,1588 # 800017fa <main>
    800001ce:	853e                	mv	a0,a5
    800001d0:	00000097          	auipc	ra,0x0
    800001d4:	e9a080e7          	jalr	-358(ra) # 8000006a <w_mepc>
    800001d8:	4501                	li	a0,0
    800001da:	00000097          	auipc	ra,0x0
    800001de:	f60080e7          	jalr	-160(ra) # 8000013a <w_satp>
    800001e2:	67c1                	lui	a5,0x10
    800001e4:	fff78513          	addi	a0,a5,-1 # ffff <_entry-0x7fff0001>
    800001e8:	00000097          	auipc	ra,0x0
    800001ec:	f04080e7          	jalr	-252(ra) # 800000ec <w_medeleg>
    800001f0:	67c1                	lui	a5,0x10
    800001f2:	fff78513          	addi	a0,a5,-1 # ffff <_entry-0x7fff0001>
    800001f6:	00000097          	auipc	ra,0x0
    800001fa:	f10080e7          	jalr	-240(ra) # 80000106 <w_mideleg>
    800001fe:	00000097          	auipc	ra,0x0
    80000202:	e86080e7          	jalr	-378(ra) # 80000084 <r_sie>
    80000206:	87aa                	mv	a5,a0
    80000208:	2227e793          	ori	a5,a5,546
    8000020c:	853e                	mv	a0,a5
    8000020e:	00000097          	auipc	ra,0x0
    80000212:	e90080e7          	jalr	-368(ra) # 8000009e <w_sie>
    80000216:	00000097          	auipc	ra,0x0
    8000021a:	032080e7          	jalr	50(ra) # 80000248 <timerinit>
    8000021e:	00000097          	auipc	ra,0x0
    80000222:	dfe080e7          	jalr	-514(ra) # 8000001c <r_mhartid>
    80000226:	87aa                	mv	a5,a0
    80000228:	fef42223          	sw	a5,-28(s0)
    8000022c:	fe442783          	lw	a5,-28(s0)
    80000230:	853e                	mv	a0,a5
    80000232:	00000097          	auipc	ra,0x0
    80000236:	f3c080e7          	jalr	-196(ra) # 8000016e <w_tp>
    8000023a:	30200073          	mret
    8000023e:	0001                	nop
    80000240:	60e2                	ld	ra,24(sp)
    80000242:	6442                	ld	s0,16(sp)
    80000244:	6105                	addi	sp,sp,32
    80000246:	8082                	ret

0000000080000248 <timerinit>:
    80000248:	1101                	addi	sp,sp,-32
    8000024a:	ec06                	sd	ra,24(sp)
    8000024c:	e822                	sd	s0,16(sp)
    8000024e:	1000                	addi	s0,sp,32
    80000250:	00000097          	auipc	ra,0x0
    80000254:	dcc080e7          	jalr	-564(ra) # 8000001c <r_mhartid>
    80000258:	87aa                	mv	a5,a0
    8000025a:	fef42623          	sw	a5,-20(s0)
    8000025e:	000f47b7          	lui	a5,0xf4
    80000262:	24078793          	addi	a5,a5,576 # f4240 <_entry-0x7ff0bdc0>
    80000266:	fef42423          	sw	a5,-24(s0)
    8000026a:	0200c7b7          	lui	a5,0x200c
    8000026e:	17e1                	addi	a5,a5,-8
    80000270:	6398                	ld	a4,0(a5)
    80000272:	fe842783          	lw	a5,-24(s0)
    80000276:	fec42683          	lw	a3,-20(s0)
    8000027a:	0036969b          	slliw	a3,a3,0x3
    8000027e:	2681                	sext.w	a3,a3
    80000280:	8636                	mv	a2,a3
    80000282:	020046b7          	lui	a3,0x2004
    80000286:	96b2                	add	a3,a3,a2
    80000288:	97ba                	add	a5,a5,a4
    8000028a:	e29c                	sd	a5,0(a3)
    8000028c:	fec42703          	lw	a4,-20(s0)
    80000290:	87ba                	mv	a5,a4
    80000292:	078a                	slli	a5,a5,0x2
    80000294:	97ba                	add	a5,a5,a4
    80000296:	078e                	slli	a5,a5,0x3
    80000298:	00014717          	auipc	a4,0x14
    8000029c:	d9870713          	addi	a4,a4,-616 # 80014030 <timer_scratch>
    800002a0:	97ba                	add	a5,a5,a4
    800002a2:	fef43023          	sd	a5,-32(s0)
    800002a6:	fec42783          	lw	a5,-20(s0)
    800002aa:	0037979b          	slliw	a5,a5,0x3
    800002ae:	2781                	sext.w	a5,a5
    800002b0:	873e                	mv	a4,a5
    800002b2:	020047b7          	lui	a5,0x2004
    800002b6:	973e                	add	a4,a4,a5
    800002b8:	fe043783          	ld	a5,-32(s0)
    800002bc:	07e1                	addi	a5,a5,24
    800002be:	e398                	sd	a4,0(a5)
    800002c0:	fe043783          	ld	a5,-32(s0)
    800002c4:	02078793          	addi	a5,a5,32 # 2004020 <_entry-0x7dffbfe0>
    800002c8:	fe842703          	lw	a4,-24(s0)
    800002cc:	e398                	sd	a4,0(a5)
    800002ce:	fe043783          	ld	a5,-32(s0)
    800002d2:	853e                	mv	a0,a5
    800002d4:	00000097          	auipc	ra,0x0
    800002d8:	e80080e7          	jalr	-384(ra) # 80000154 <w_mscratch>
    800002dc:	00008797          	auipc	a5,0x8
    800002e0:	50478793          	addi	a5,a5,1284 # 800087e0 <timervec>
    800002e4:	853e                	mv	a0,a5
    800002e6:	00000097          	auipc	ra,0x0
    800002ea:	e3a080e7          	jalr	-454(ra) # 80000120 <w_mtvec>
    800002ee:	00000097          	auipc	ra,0x0
    800002f2:	d48080e7          	jalr	-696(ra) # 80000036 <r_mstatus>
    800002f6:	87aa                	mv	a5,a0
    800002f8:	0087e793          	ori	a5,a5,8
    800002fc:	853e                	mv	a0,a5
    800002fe:	00000097          	auipc	ra,0x0
    80000302:	d52080e7          	jalr	-686(ra) # 80000050 <w_mstatus>
    80000306:	00000097          	auipc	ra,0x0
    8000030a:	db2080e7          	jalr	-590(ra) # 800000b8 <r_mie>
    8000030e:	87aa                	mv	a5,a0
    80000310:	0807e793          	ori	a5,a5,128
    80000314:	853e                	mv	a0,a5
    80000316:	00000097          	auipc	ra,0x0
    8000031a:	dbc080e7          	jalr	-580(ra) # 800000d2 <w_mie>
    8000031e:	0001                	nop
    80000320:	60e2                	ld	ra,24(sp)
    80000322:	6442                	ld	s0,16(sp)
    80000324:	6105                	addi	sp,sp,32
    80000326:	8082                	ret

0000000080000328 <consputc>:
    80000328:	1101                	addi	sp,sp,-32
    8000032a:	ec06                	sd	ra,24(sp)
    8000032c:	e822                	sd	s0,16(sp)
    8000032e:	1000                	addi	s0,sp,32
    80000330:	87aa                	mv	a5,a0
    80000332:	fef42623          	sw	a5,-20(s0)
    80000336:	fec42783          	lw	a5,-20(s0)
    8000033a:	0007871b          	sext.w	a4,a5
    8000033e:	10000793          	li	a5,256
    80000342:	02f71363          	bne	a4,a5,80000368 <consputc+0x40>
    80000346:	4521                	li	a0,8
    80000348:	00001097          	auipc	ra,0x1
    8000034c:	af6080e7          	jalr	-1290(ra) # 80000e3e <uartputc_sync>
    80000350:	02000513          	li	a0,32
    80000354:	00001097          	auipc	ra,0x1
    80000358:	aea080e7          	jalr	-1302(ra) # 80000e3e <uartputc_sync>
    8000035c:	4521                	li	a0,8
    8000035e:	00001097          	auipc	ra,0x1
    80000362:	ae0080e7          	jalr	-1312(ra) # 80000e3e <uartputc_sync>
    80000366:	a801                	j	80000376 <consputc+0x4e>
    80000368:	fec42783          	lw	a5,-20(s0)
    8000036c:	853e                	mv	a0,a5
    8000036e:	00001097          	auipc	ra,0x1
    80000372:	ad0080e7          	jalr	-1328(ra) # 80000e3e <uartputc_sync>
    80000376:	0001                	nop
    80000378:	60e2                	ld	ra,24(sp)
    8000037a:	6442                	ld	s0,16(sp)
    8000037c:	6105                	addi	sp,sp,32
    8000037e:	8082                	ret

0000000080000380 <consolewrite>:
    80000380:	7179                	addi	sp,sp,-48
    80000382:	f406                	sd	ra,40(sp)
    80000384:	f022                	sd	s0,32(sp)
    80000386:	1800                	addi	s0,sp,48
    80000388:	87aa                	mv	a5,a0
    8000038a:	fcb43823          	sd	a1,-48(s0)
    8000038e:	8732                	mv	a4,a2
    80000390:	fcf42e23          	sw	a5,-36(s0)
    80000394:	87ba                	mv	a5,a4
    80000396:	fcf42c23          	sw	a5,-40(s0)
    8000039a:	00014517          	auipc	a0,0x14
    8000039e:	dd650513          	addi	a0,a0,-554 # 80014170 <cons>
    800003a2:	00001097          	auipc	ra,0x1
    800003a6:	ede080e7          	jalr	-290(ra) # 80001280 <acquire>
    800003aa:	fe042623          	sw	zero,-20(s0)
    800003ae:	a0a1                	j	800003f6 <consolewrite+0x76>
    800003b0:	fec42703          	lw	a4,-20(s0)
    800003b4:	fd043783          	ld	a5,-48(s0)
    800003b8:	00f70633          	add	a2,a4,a5
    800003bc:	fdc42703          	lw	a4,-36(s0)
    800003c0:	feb40793          	addi	a5,s0,-21
    800003c4:	4685                	li	a3,1
    800003c6:	85ba                	mv	a1,a4
    800003c8:	853e                	mv	a0,a5
    800003ca:	00003097          	auipc	ra,0x3
    800003ce:	27a080e7          	jalr	634(ra) # 80003644 <either_copyin>
    800003d2:	87aa                	mv	a5,a0
    800003d4:	873e                	mv	a4,a5
    800003d6:	57fd                	li	a5,-1
    800003d8:	02f70863          	beq	a4,a5,80000408 <consolewrite+0x88>
    800003dc:	feb44783          	lbu	a5,-21(s0)
    800003e0:	2781                	sext.w	a5,a5
    800003e2:	853e                	mv	a0,a5
    800003e4:	00001097          	auipc	ra,0x1
    800003e8:	970080e7          	jalr	-1680(ra) # 80000d54 <uartputc>
    800003ec:	fec42783          	lw	a5,-20(s0)
    800003f0:	2785                	addiw	a5,a5,1
    800003f2:	fef42623          	sw	a5,-20(s0)
    800003f6:	fec42703          	lw	a4,-20(s0)
    800003fa:	fd842783          	lw	a5,-40(s0)
    800003fe:	2701                	sext.w	a4,a4
    80000400:	2781                	sext.w	a5,a5
    80000402:	faf747e3          	blt	a4,a5,800003b0 <consolewrite+0x30>
    80000406:	a011                	j	8000040a <consolewrite+0x8a>
    80000408:	0001                	nop
    8000040a:	00014517          	auipc	a0,0x14
    8000040e:	d6650513          	addi	a0,a0,-666 # 80014170 <cons>
    80000412:	00001097          	auipc	ra,0x1
    80000416:	ed2080e7          	jalr	-302(ra) # 800012e4 <release>
    8000041a:	fec42783          	lw	a5,-20(s0)
    8000041e:	853e                	mv	a0,a5
    80000420:	70a2                	ld	ra,40(sp)
    80000422:	7402                	ld	s0,32(sp)
    80000424:	6145                	addi	sp,sp,48
    80000426:	8082                	ret

0000000080000428 <consoleread>:
    80000428:	7179                	addi	sp,sp,-48
    8000042a:	f406                	sd	ra,40(sp)
    8000042c:	f022                	sd	s0,32(sp)
    8000042e:	1800                	addi	s0,sp,48
    80000430:	87aa                	mv	a5,a0
    80000432:	fcb43823          	sd	a1,-48(s0)
    80000436:	8732                	mv	a4,a2
    80000438:	fcf42e23          	sw	a5,-36(s0)
    8000043c:	87ba                	mv	a5,a4
    8000043e:	fcf42c23          	sw	a5,-40(s0)
    80000442:	fd842783          	lw	a5,-40(s0)
    80000446:	fef42623          	sw	a5,-20(s0)
    8000044a:	00014517          	auipc	a0,0x14
    8000044e:	d2650513          	addi	a0,a0,-730 # 80014170 <cons>
    80000452:	00001097          	auipc	ra,0x1
    80000456:	e2e080e7          	jalr	-466(ra) # 80001280 <acquire>
    8000045a:	a215                	j	8000057e <consoleread+0x156>
    8000045c:	00002097          	auipc	ra,0x2
    80000460:	38e080e7          	jalr	910(ra) # 800027ea <myproc>
    80000464:	87aa                	mv	a5,a0
    80000466:	5b9c                	lw	a5,48(a5)
    80000468:	cb99                	beqz	a5,8000047e <consoleread+0x56>
    8000046a:	00014517          	auipc	a0,0x14
    8000046e:	d0650513          	addi	a0,a0,-762 # 80014170 <cons>
    80000472:	00001097          	auipc	ra,0x1
    80000476:	e72080e7          	jalr	-398(ra) # 800012e4 <release>
    8000047a:	57fd                	li	a5,-1
    8000047c:	aa25                	j	800005b4 <consoleread+0x18c>
    8000047e:	00014597          	auipc	a1,0x14
    80000482:	cf258593          	addi	a1,a1,-782 # 80014170 <cons>
    80000486:	00014517          	auipc	a0,0x14
    8000048a:	d8250513          	addi	a0,a0,-638 # 80014208 <cons+0x98>
    8000048e:	00003097          	auipc	ra,0x3
    80000492:	f30080e7          	jalr	-208(ra) # 800033be <sleep>
    80000496:	00014797          	auipc	a5,0x14
    8000049a:	cda78793          	addi	a5,a5,-806 # 80014170 <cons>
    8000049e:	0987a703          	lw	a4,152(a5)
    800004a2:	00014797          	auipc	a5,0x14
    800004a6:	cce78793          	addi	a5,a5,-818 # 80014170 <cons>
    800004aa:	09c7a783          	lw	a5,156(a5)
    800004ae:	faf707e3          	beq	a4,a5,8000045c <consoleread+0x34>
    800004b2:	00014797          	auipc	a5,0x14
    800004b6:	cbe78793          	addi	a5,a5,-834 # 80014170 <cons>
    800004ba:	0987a783          	lw	a5,152(a5)
    800004be:	2781                	sext.w	a5,a5
    800004c0:	0017871b          	addiw	a4,a5,1
    800004c4:	0007069b          	sext.w	a3,a4
    800004c8:	00014717          	auipc	a4,0x14
    800004cc:	ca870713          	addi	a4,a4,-856 # 80014170 <cons>
    800004d0:	08d72c23          	sw	a3,152(a4)
    800004d4:	07f7f793          	andi	a5,a5,127
    800004d8:	2781                	sext.w	a5,a5
    800004da:	00014717          	auipc	a4,0x14
    800004de:	c9670713          	addi	a4,a4,-874 # 80014170 <cons>
    800004e2:	1782                	slli	a5,a5,0x20
    800004e4:	9381                	srli	a5,a5,0x20
    800004e6:	97ba                	add	a5,a5,a4
    800004e8:	0187c783          	lbu	a5,24(a5)
    800004ec:	fef42423          	sw	a5,-24(s0)
    800004f0:	fe842783          	lw	a5,-24(s0)
    800004f4:	0007871b          	sext.w	a4,a5
    800004f8:	4791                	li	a5,4
    800004fa:	02f71963          	bne	a4,a5,8000052c <consoleread+0x104>
    800004fe:	fd842703          	lw	a4,-40(s0)
    80000502:	fec42783          	lw	a5,-20(s0)
    80000506:	2781                	sext.w	a5,a5
    80000508:	08f77163          	bgeu	a4,a5,8000058a <consoleread+0x162>
    8000050c:	00014797          	auipc	a5,0x14
    80000510:	c6478793          	addi	a5,a5,-924 # 80014170 <cons>
    80000514:	0987a783          	lw	a5,152(a5)
    80000518:	37fd                	addiw	a5,a5,-1
    8000051a:	0007871b          	sext.w	a4,a5
    8000051e:	00014797          	auipc	a5,0x14
    80000522:	c5278793          	addi	a5,a5,-942 # 80014170 <cons>
    80000526:	08e7ac23          	sw	a4,152(a5)
    8000052a:	a085                	j	8000058a <consoleread+0x162>
    8000052c:	fe842783          	lw	a5,-24(s0)
    80000530:	0ff7f793          	andi	a5,a5,255
    80000534:	fef403a3          	sb	a5,-25(s0)
    80000538:	fe740713          	addi	a4,s0,-25
    8000053c:	fdc42783          	lw	a5,-36(s0)
    80000540:	4685                	li	a3,1
    80000542:	863a                	mv	a2,a4
    80000544:	fd043583          	ld	a1,-48(s0)
    80000548:	853e                	mv	a0,a5
    8000054a:	00003097          	auipc	ra,0x3
    8000054e:	086080e7          	jalr	134(ra) # 800035d0 <either_copyout>
    80000552:	87aa                	mv	a5,a0
    80000554:	873e                	mv	a4,a5
    80000556:	57fd                	li	a5,-1
    80000558:	02f70b63          	beq	a4,a5,8000058e <consoleread+0x166>
    8000055c:	fd043783          	ld	a5,-48(s0)
    80000560:	0785                	addi	a5,a5,1
    80000562:	fcf43823          	sd	a5,-48(s0)
    80000566:	fd842783          	lw	a5,-40(s0)
    8000056a:	37fd                	addiw	a5,a5,-1
    8000056c:	fcf42c23          	sw	a5,-40(s0)
    80000570:	fe842783          	lw	a5,-24(s0)
    80000574:	0007871b          	sext.w	a4,a5
    80000578:	47a9                	li	a5,10
    8000057a:	00f70c63          	beq	a4,a5,80000592 <consoleread+0x16a>
    8000057e:	fd842783          	lw	a5,-40(s0)
    80000582:	2781                	sext.w	a5,a5
    80000584:	f0f049e3          	bgtz	a5,80000496 <consoleread+0x6e>
    80000588:	a031                	j	80000594 <consoleread+0x16c>
    8000058a:	0001                	nop
    8000058c:	a021                	j	80000594 <consoleread+0x16c>
    8000058e:	0001                	nop
    80000590:	a011                	j	80000594 <consoleread+0x16c>
    80000592:	0001                	nop
    80000594:	00014517          	auipc	a0,0x14
    80000598:	bdc50513          	addi	a0,a0,-1060 # 80014170 <cons>
    8000059c:	00001097          	auipc	ra,0x1
    800005a0:	d48080e7          	jalr	-696(ra) # 800012e4 <release>
    800005a4:	fd842783          	lw	a5,-40(s0)
    800005a8:	fec42703          	lw	a4,-20(s0)
    800005ac:	40f707bb          	subw	a5,a4,a5
    800005b0:	2781                	sext.w	a5,a5
    800005b2:	2781                	sext.w	a5,a5
    800005b4:	853e                	mv	a0,a5
    800005b6:	70a2                	ld	ra,40(sp)
    800005b8:	7402                	ld	s0,32(sp)
    800005ba:	6145                	addi	sp,sp,48
    800005bc:	8082                	ret

00000000800005be <consoleintr>:
    800005be:	1101                	addi	sp,sp,-32
    800005c0:	ec06                	sd	ra,24(sp)
    800005c2:	e822                	sd	s0,16(sp)
    800005c4:	1000                	addi	s0,sp,32
    800005c6:	87aa                	mv	a5,a0
    800005c8:	fef42623          	sw	a5,-20(s0)
    800005cc:	00014517          	auipc	a0,0x14
    800005d0:	ba450513          	addi	a0,a0,-1116 # 80014170 <cons>
    800005d4:	00001097          	auipc	ra,0x1
    800005d8:	cac080e7          	jalr	-852(ra) # 80001280 <acquire>
    800005dc:	fec42783          	lw	a5,-20(s0)
    800005e0:	0007871b          	sext.w	a4,a5
    800005e4:	07f00793          	li	a5,127
    800005e8:	0cf70763          	beq	a4,a5,800006b6 <consoleintr+0xf8>
    800005ec:	fec42783          	lw	a5,-20(s0)
    800005f0:	0007871b          	sext.w	a4,a5
    800005f4:	07f00793          	li	a5,127
    800005f8:	10e7c363          	blt	a5,a4,800006fe <consoleintr+0x140>
    800005fc:	fec42783          	lw	a5,-20(s0)
    80000600:	0007871b          	sext.w	a4,a5
    80000604:	47d5                	li	a5,21
    80000606:	06f70163          	beq	a4,a5,80000668 <consoleintr+0xaa>
    8000060a:	fec42783          	lw	a5,-20(s0)
    8000060e:	0007871b          	sext.w	a4,a5
    80000612:	47d5                	li	a5,21
    80000614:	0ee7c563          	blt	a5,a4,800006fe <consoleintr+0x140>
    80000618:	fec42783          	lw	a5,-20(s0)
    8000061c:	0007871b          	sext.w	a4,a5
    80000620:	47a1                	li	a5,8
    80000622:	08f70a63          	beq	a4,a5,800006b6 <consoleintr+0xf8>
    80000626:	fec42783          	lw	a5,-20(s0)
    8000062a:	0007871b          	sext.w	a4,a5
    8000062e:	47c1                	li	a5,16
    80000630:	0cf71763          	bne	a4,a5,800006fe <consoleintr+0x140>
    80000634:	00003097          	auipc	ra,0x3
    80000638:	084080e7          	jalr	132(ra) # 800036b8 <procdump>
    8000063c:	aac1                	j	8000080c <consoleintr+0x24e>
    8000063e:	00014797          	auipc	a5,0x14
    80000642:	b3278793          	addi	a5,a5,-1230 # 80014170 <cons>
    80000646:	0a07a783          	lw	a5,160(a5)
    8000064a:	37fd                	addiw	a5,a5,-1
    8000064c:	0007871b          	sext.w	a4,a5
    80000650:	00014797          	auipc	a5,0x14
    80000654:	b2078793          	addi	a5,a5,-1248 # 80014170 <cons>
    80000658:	0ae7a023          	sw	a4,160(a5)
    8000065c:	10000513          	li	a0,256
    80000660:	00000097          	auipc	ra,0x0
    80000664:	cc8080e7          	jalr	-824(ra) # 80000328 <consputc>
    80000668:	00014797          	auipc	a5,0x14
    8000066c:	b0878793          	addi	a5,a5,-1272 # 80014170 <cons>
    80000670:	0a07a703          	lw	a4,160(a5)
    80000674:	00014797          	auipc	a5,0x14
    80000678:	afc78793          	addi	a5,a5,-1284 # 80014170 <cons>
    8000067c:	09c7a783          	lw	a5,156(a5)
    80000680:	18f70163          	beq	a4,a5,80000802 <consoleintr+0x244>
    80000684:	00014797          	auipc	a5,0x14
    80000688:	aec78793          	addi	a5,a5,-1300 # 80014170 <cons>
    8000068c:	0a07a783          	lw	a5,160(a5)
    80000690:	37fd                	addiw	a5,a5,-1
    80000692:	2781                	sext.w	a5,a5
    80000694:	07f7f793          	andi	a5,a5,127
    80000698:	2781                	sext.w	a5,a5
    8000069a:	00014717          	auipc	a4,0x14
    8000069e:	ad670713          	addi	a4,a4,-1322 # 80014170 <cons>
    800006a2:	1782                	slli	a5,a5,0x20
    800006a4:	9381                	srli	a5,a5,0x20
    800006a6:	97ba                	add	a5,a5,a4
    800006a8:	0187c783          	lbu	a5,24(a5)
    800006ac:	873e                	mv	a4,a5
    800006ae:	47a9                	li	a5,10
    800006b0:	f8f717e3          	bne	a4,a5,8000063e <consoleintr+0x80>
    800006b4:	a2b9                	j	80000802 <consoleintr+0x244>
    800006b6:	00014797          	auipc	a5,0x14
    800006ba:	aba78793          	addi	a5,a5,-1350 # 80014170 <cons>
    800006be:	0a07a703          	lw	a4,160(a5)
    800006c2:	00014797          	auipc	a5,0x14
    800006c6:	aae78793          	addi	a5,a5,-1362 # 80014170 <cons>
    800006ca:	09c7a783          	lw	a5,156(a5)
    800006ce:	12f70c63          	beq	a4,a5,80000806 <consoleintr+0x248>
    800006d2:	00014797          	auipc	a5,0x14
    800006d6:	a9e78793          	addi	a5,a5,-1378 # 80014170 <cons>
    800006da:	0a07a783          	lw	a5,160(a5)
    800006de:	37fd                	addiw	a5,a5,-1
    800006e0:	0007871b          	sext.w	a4,a5
    800006e4:	00014797          	auipc	a5,0x14
    800006e8:	a8c78793          	addi	a5,a5,-1396 # 80014170 <cons>
    800006ec:	0ae7a023          	sw	a4,160(a5)
    800006f0:	10000513          	li	a0,256
    800006f4:	00000097          	auipc	ra,0x0
    800006f8:	c34080e7          	jalr	-972(ra) # 80000328 <consputc>
    800006fc:	a229                	j	80000806 <consoleintr+0x248>
    800006fe:	fec42783          	lw	a5,-20(s0)
    80000702:	2781                	sext.w	a5,a5
    80000704:	10078363          	beqz	a5,8000080a <consoleintr+0x24c>
    80000708:	00014797          	auipc	a5,0x14
    8000070c:	a6878793          	addi	a5,a5,-1432 # 80014170 <cons>
    80000710:	0a07a703          	lw	a4,160(a5)
    80000714:	00014797          	auipc	a5,0x14
    80000718:	a5c78793          	addi	a5,a5,-1444 # 80014170 <cons>
    8000071c:	0987a783          	lw	a5,152(a5)
    80000720:	40f707bb          	subw	a5,a4,a5
    80000724:	2781                	sext.w	a5,a5
    80000726:	873e                	mv	a4,a5
    80000728:	07f00793          	li	a5,127
    8000072c:	0ce7ef63          	bltu	a5,a4,8000080a <consoleintr+0x24c>
    80000730:	fec42783          	lw	a5,-20(s0)
    80000734:	0007871b          	sext.w	a4,a5
    80000738:	47b5                	li	a5,13
    8000073a:	00f70563          	beq	a4,a5,80000744 <consoleintr+0x186>
    8000073e:	fec42783          	lw	a5,-20(s0)
    80000742:	a011                	j	80000746 <consoleintr+0x188>
    80000744:	47a9                	li	a5,10
    80000746:	fef42623          	sw	a5,-20(s0)
    8000074a:	fec42783          	lw	a5,-20(s0)
    8000074e:	853e                	mv	a0,a5
    80000750:	00000097          	auipc	ra,0x0
    80000754:	bd8080e7          	jalr	-1064(ra) # 80000328 <consputc>
    80000758:	00014797          	auipc	a5,0x14
    8000075c:	a1878793          	addi	a5,a5,-1512 # 80014170 <cons>
    80000760:	0a07a783          	lw	a5,160(a5)
    80000764:	2781                	sext.w	a5,a5
    80000766:	0017871b          	addiw	a4,a5,1
    8000076a:	0007069b          	sext.w	a3,a4
    8000076e:	00014717          	auipc	a4,0x14
    80000772:	a0270713          	addi	a4,a4,-1534 # 80014170 <cons>
    80000776:	0ad72023          	sw	a3,160(a4)
    8000077a:	07f7f793          	andi	a5,a5,127
    8000077e:	2781                	sext.w	a5,a5
    80000780:	fec42703          	lw	a4,-20(s0)
    80000784:	0ff77713          	andi	a4,a4,255
    80000788:	00014697          	auipc	a3,0x14
    8000078c:	9e868693          	addi	a3,a3,-1560 # 80014170 <cons>
    80000790:	1782                	slli	a5,a5,0x20
    80000792:	9381                	srli	a5,a5,0x20
    80000794:	97b6                	add	a5,a5,a3
    80000796:	00e78c23          	sb	a4,24(a5)
    8000079a:	fec42783          	lw	a5,-20(s0)
    8000079e:	0007871b          	sext.w	a4,a5
    800007a2:	47a9                	li	a5,10
    800007a4:	02f70a63          	beq	a4,a5,800007d8 <consoleintr+0x21a>
    800007a8:	fec42783          	lw	a5,-20(s0)
    800007ac:	0007871b          	sext.w	a4,a5
    800007b0:	4791                	li	a5,4
    800007b2:	02f70363          	beq	a4,a5,800007d8 <consoleintr+0x21a>
    800007b6:	00014797          	auipc	a5,0x14
    800007ba:	9ba78793          	addi	a5,a5,-1606 # 80014170 <cons>
    800007be:	0a07a703          	lw	a4,160(a5)
    800007c2:	00014797          	auipc	a5,0x14
    800007c6:	9ae78793          	addi	a5,a5,-1618 # 80014170 <cons>
    800007ca:	0987a783          	lw	a5,152(a5)
    800007ce:	0807879b          	addiw	a5,a5,128
    800007d2:	2781                	sext.w	a5,a5
    800007d4:	02f71b63          	bne	a4,a5,8000080a <consoleintr+0x24c>
    800007d8:	00014797          	auipc	a5,0x14
    800007dc:	99878793          	addi	a5,a5,-1640 # 80014170 <cons>
    800007e0:	0a07a703          	lw	a4,160(a5)
    800007e4:	00014797          	auipc	a5,0x14
    800007e8:	98c78793          	addi	a5,a5,-1652 # 80014170 <cons>
    800007ec:	08e7ae23          	sw	a4,156(a5)
    800007f0:	00014517          	auipc	a0,0x14
    800007f4:	a1850513          	addi	a0,a0,-1512 # 80014208 <cons+0x98>
    800007f8:	00003097          	auipc	ra,0x3
    800007fc:	c5a080e7          	jalr	-934(ra) # 80003452 <wakeup>
    80000800:	a029                	j	8000080a <consoleintr+0x24c>
    80000802:	0001                	nop
    80000804:	a021                	j	8000080c <consoleintr+0x24e>
    80000806:	0001                	nop
    80000808:	a011                	j	8000080c <consoleintr+0x24e>
    8000080a:	0001                	nop
    8000080c:	00014517          	auipc	a0,0x14
    80000810:	96450513          	addi	a0,a0,-1692 # 80014170 <cons>
    80000814:	00001097          	auipc	ra,0x1
    80000818:	ad0080e7          	jalr	-1328(ra) # 800012e4 <release>
    8000081c:	0001                	nop
    8000081e:	60e2                	ld	ra,24(sp)
    80000820:	6442                	ld	s0,16(sp)
    80000822:	6105                	addi	sp,sp,32
    80000824:	8082                	ret

0000000080000826 <consoleinit>:
    80000826:	1141                	addi	sp,sp,-16
    80000828:	e406                	sd	ra,8(sp)
    8000082a:	e022                	sd	s0,0(sp)
    8000082c:	0800                	addi	s0,sp,16
    8000082e:	0000a597          	auipc	a1,0xa
    80000832:	7d258593          	addi	a1,a1,2002 # 8000b000 <etext>
    80000836:	00014517          	auipc	a0,0x14
    8000083a:	93a50513          	addi	a0,a0,-1734 # 80014170 <cons>
    8000083e:	00001097          	auipc	ra,0x1
    80000842:	a12080e7          	jalr	-1518(ra) # 80001250 <initlock>
    80000846:	00000097          	auipc	ra,0x0
    8000084a:	494080e7          	jalr	1172(ra) # 80000cda <uartinit>
    8000084e:	00024797          	auipc	a5,0x24
    80000852:	aaa78793          	addi	a5,a5,-1366 # 800242f8 <devsw>
    80000856:	00000717          	auipc	a4,0x0
    8000085a:	bd270713          	addi	a4,a4,-1070 # 80000428 <consoleread>
    8000085e:	eb98                	sd	a4,16(a5)
    80000860:	00024797          	auipc	a5,0x24
    80000864:	a9878793          	addi	a5,a5,-1384 # 800242f8 <devsw>
    80000868:	00000717          	auipc	a4,0x0
    8000086c:	b1870713          	addi	a4,a4,-1256 # 80000380 <consolewrite>
    80000870:	ef98                	sd	a4,24(a5)
    80000872:	0001                	nop
    80000874:	60a2                	ld	ra,8(sp)
    80000876:	6402                	ld	s0,0(sp)
    80000878:	0141                	addi	sp,sp,16
    8000087a:	8082                	ret

000000008000087c <printint>:
    8000087c:	7139                	addi	sp,sp,-64
    8000087e:	fc06                	sd	ra,56(sp)
    80000880:	f822                	sd	s0,48(sp)
    80000882:	0080                	addi	s0,sp,64
    80000884:	87aa                	mv	a5,a0
    80000886:	86ae                	mv	a3,a1
    80000888:	8732                	mv	a4,a2
    8000088a:	fcf42623          	sw	a5,-52(s0)
    8000088e:	87b6                	mv	a5,a3
    80000890:	fcf42423          	sw	a5,-56(s0)
    80000894:	87ba                	mv	a5,a4
    80000896:	fcf42223          	sw	a5,-60(s0)
    8000089a:	fc442783          	lw	a5,-60(s0)
    8000089e:	2781                	sext.w	a5,a5
    800008a0:	c78d                	beqz	a5,800008ca <printint+0x4e>
    800008a2:	fcc42783          	lw	a5,-52(s0)
    800008a6:	01f7d79b          	srliw	a5,a5,0x1f
    800008aa:	0ff7f793          	andi	a5,a5,255
    800008ae:	fcf42223          	sw	a5,-60(s0)
    800008b2:	fc442783          	lw	a5,-60(s0)
    800008b6:	2781                	sext.w	a5,a5
    800008b8:	cb89                	beqz	a5,800008ca <printint+0x4e>
    800008ba:	fcc42783          	lw	a5,-52(s0)
    800008be:	40f007bb          	negw	a5,a5
    800008c2:	2781                	sext.w	a5,a5
    800008c4:	fef42423          	sw	a5,-24(s0)
    800008c8:	a029                	j	800008d2 <printint+0x56>
    800008ca:	fcc42783          	lw	a5,-52(s0)
    800008ce:	fef42423          	sw	a5,-24(s0)
    800008d2:	fe042623          	sw	zero,-20(s0)
    800008d6:	fc842783          	lw	a5,-56(s0)
    800008da:	fe842703          	lw	a4,-24(s0)
    800008de:	02f777bb          	remuw	a5,a4,a5
    800008e2:	0007861b          	sext.w	a2,a5
    800008e6:	fec42783          	lw	a5,-20(s0)
    800008ea:	0017871b          	addiw	a4,a5,1
    800008ee:	fee42623          	sw	a4,-20(s0)
    800008f2:	0000b697          	auipc	a3,0xb
    800008f6:	e6e68693          	addi	a3,a3,-402 # 8000b760 <digits>
    800008fa:	02061713          	slli	a4,a2,0x20
    800008fe:	9301                	srli	a4,a4,0x20
    80000900:	9736                	add	a4,a4,a3
    80000902:	00074703          	lbu	a4,0(a4)
    80000906:	ff040693          	addi	a3,s0,-16
    8000090a:	97b6                	add	a5,a5,a3
    8000090c:	fee78423          	sb	a4,-24(a5)
    80000910:	fc842783          	lw	a5,-56(s0)
    80000914:	fe842703          	lw	a4,-24(s0)
    80000918:	02f757bb          	divuw	a5,a4,a5
    8000091c:	fef42423          	sw	a5,-24(s0)
    80000920:	fe842783          	lw	a5,-24(s0)
    80000924:	2781                	sext.w	a5,a5
    80000926:	fbc5                	bnez	a5,800008d6 <printint+0x5a>
    80000928:	fc442783          	lw	a5,-60(s0)
    8000092c:	2781                	sext.w	a5,a5
    8000092e:	cf85                	beqz	a5,80000966 <printint+0xea>
    80000930:	fec42783          	lw	a5,-20(s0)
    80000934:	0017871b          	addiw	a4,a5,1
    80000938:	fee42623          	sw	a4,-20(s0)
    8000093c:	ff040713          	addi	a4,s0,-16
    80000940:	97ba                	add	a5,a5,a4
    80000942:	02d00713          	li	a4,45
    80000946:	fee78423          	sb	a4,-24(a5)
    8000094a:	a831                	j	80000966 <printint+0xea>
    8000094c:	fec42783          	lw	a5,-20(s0)
    80000950:	ff040713          	addi	a4,s0,-16
    80000954:	97ba                	add	a5,a5,a4
    80000956:	fe87c783          	lbu	a5,-24(a5)
    8000095a:	2781                	sext.w	a5,a5
    8000095c:	853e                	mv	a0,a5
    8000095e:	00000097          	auipc	ra,0x0
    80000962:	9ca080e7          	jalr	-1590(ra) # 80000328 <consputc>
    80000966:	fec42783          	lw	a5,-20(s0)
    8000096a:	37fd                	addiw	a5,a5,-1
    8000096c:	fef42623          	sw	a5,-20(s0)
    80000970:	fec42783          	lw	a5,-20(s0)
    80000974:	2781                	sext.w	a5,a5
    80000976:	fc07dbe3          	bgez	a5,8000094c <printint+0xd0>
    8000097a:	0001                	nop
    8000097c:	0001                	nop
    8000097e:	70e2                	ld	ra,56(sp)
    80000980:	7442                	ld	s0,48(sp)
    80000982:	6121                	addi	sp,sp,64
    80000984:	8082                	ret

0000000080000986 <printptr>:
    80000986:	7179                	addi	sp,sp,-48
    80000988:	f406                	sd	ra,40(sp)
    8000098a:	f022                	sd	s0,32(sp)
    8000098c:	1800                	addi	s0,sp,48
    8000098e:	fca43c23          	sd	a0,-40(s0)
    80000992:	03000513          	li	a0,48
    80000996:	00000097          	auipc	ra,0x0
    8000099a:	992080e7          	jalr	-1646(ra) # 80000328 <consputc>
    8000099e:	07800513          	li	a0,120
    800009a2:	00000097          	auipc	ra,0x0
    800009a6:	986080e7          	jalr	-1658(ra) # 80000328 <consputc>
    800009aa:	fe042623          	sw	zero,-20(s0)
    800009ae:	a81d                	j	800009e4 <printptr+0x5e>
    800009b0:	fd843783          	ld	a5,-40(s0)
    800009b4:	93f1                	srli	a5,a5,0x3c
    800009b6:	0000b717          	auipc	a4,0xb
    800009ba:	daa70713          	addi	a4,a4,-598 # 8000b760 <digits>
    800009be:	97ba                	add	a5,a5,a4
    800009c0:	0007c783          	lbu	a5,0(a5)
    800009c4:	2781                	sext.w	a5,a5
    800009c6:	853e                	mv	a0,a5
    800009c8:	00000097          	auipc	ra,0x0
    800009cc:	960080e7          	jalr	-1696(ra) # 80000328 <consputc>
    800009d0:	fec42783          	lw	a5,-20(s0)
    800009d4:	2785                	addiw	a5,a5,1
    800009d6:	fef42623          	sw	a5,-20(s0)
    800009da:	fd843783          	ld	a5,-40(s0)
    800009de:	0792                	slli	a5,a5,0x4
    800009e0:	fcf43c23          	sd	a5,-40(s0)
    800009e4:	fec42783          	lw	a5,-20(s0)
    800009e8:	873e                	mv	a4,a5
    800009ea:	47bd                	li	a5,15
    800009ec:	fce7f2e3          	bgeu	a5,a4,800009b0 <printptr+0x2a>
    800009f0:	0001                	nop
    800009f2:	0001                	nop
    800009f4:	70a2                	ld	ra,40(sp)
    800009f6:	7402                	ld	s0,32(sp)
    800009f8:	6145                	addi	sp,sp,48
    800009fa:	8082                	ret

00000000800009fc <printf>:
    800009fc:	7119                	addi	sp,sp,-128
    800009fe:	fc06                	sd	ra,56(sp)
    80000a00:	f822                	sd	s0,48(sp)
    80000a02:	0080                	addi	s0,sp,64
    80000a04:	fca43423          	sd	a0,-56(s0)
    80000a08:	e40c                	sd	a1,8(s0)
    80000a0a:	e810                	sd	a2,16(s0)
    80000a0c:	ec14                	sd	a3,24(s0)
    80000a0e:	f018                	sd	a4,32(s0)
    80000a10:	f41c                	sd	a5,40(s0)
    80000a12:	03043823          	sd	a6,48(s0)
    80000a16:	03143c23          	sd	a7,56(s0)
    80000a1a:	00013797          	auipc	a5,0x13
    80000a1e:	7fe78793          	addi	a5,a5,2046 # 80014218 <pr>
    80000a22:	4f9c                	lw	a5,24(a5)
    80000a24:	fcf42e23          	sw	a5,-36(s0)
    80000a28:	fdc42783          	lw	a5,-36(s0)
    80000a2c:	2781                	sext.w	a5,a5
    80000a2e:	cb89                	beqz	a5,80000a40 <printf+0x44>
    80000a30:	00013517          	auipc	a0,0x13
    80000a34:	7e850513          	addi	a0,a0,2024 # 80014218 <pr>
    80000a38:	00001097          	auipc	ra,0x1
    80000a3c:	848080e7          	jalr	-1976(ra) # 80001280 <acquire>
    80000a40:	fc843783          	ld	a5,-56(s0)
    80000a44:	eb89                	bnez	a5,80000a56 <printf+0x5a>
    80000a46:	0000a517          	auipc	a0,0xa
    80000a4a:	5c250513          	addi	a0,a0,1474 # 8000b008 <etext+0x8>
    80000a4e:	00000097          	auipc	ra,0x0
    80000a52:	204080e7          	jalr	516(ra) # 80000c52 <panic>
    80000a56:	04040793          	addi	a5,s0,64
    80000a5a:	fcf43023          	sd	a5,-64(s0)
    80000a5e:	fc043783          	ld	a5,-64(s0)
    80000a62:	fc878793          	addi	a5,a5,-56
    80000a66:	fcf43823          	sd	a5,-48(s0)
    80000a6a:	fe042623          	sw	zero,-20(s0)
    80000a6e:	a24d                	j	80000c10 <printf+0x214>
    80000a70:	fd842783          	lw	a5,-40(s0)
    80000a74:	0007871b          	sext.w	a4,a5
    80000a78:	02500793          	li	a5,37
    80000a7c:	00f70a63          	beq	a4,a5,80000a90 <printf+0x94>
    80000a80:	fd842783          	lw	a5,-40(s0)
    80000a84:	853e                	mv	a0,a5
    80000a86:	00000097          	auipc	ra,0x0
    80000a8a:	8a2080e7          	jalr	-1886(ra) # 80000328 <consputc>
    80000a8e:	aaa5                	j	80000c06 <printf+0x20a>
    80000a90:	fec42783          	lw	a5,-20(s0)
    80000a94:	2785                	addiw	a5,a5,1
    80000a96:	fef42623          	sw	a5,-20(s0)
    80000a9a:	fec42783          	lw	a5,-20(s0)
    80000a9e:	fc843703          	ld	a4,-56(s0)
    80000aa2:	97ba                	add	a5,a5,a4
    80000aa4:	0007c783          	lbu	a5,0(a5)
    80000aa8:	fcf42c23          	sw	a5,-40(s0)
    80000aac:	fd842783          	lw	a5,-40(s0)
    80000ab0:	2781                	sext.w	a5,a5
    80000ab2:	16078e63          	beqz	a5,80000c2e <printf+0x232>
    80000ab6:	fd842783          	lw	a5,-40(s0)
    80000aba:	0007871b          	sext.w	a4,a5
    80000abe:	07800793          	li	a5,120
    80000ac2:	08f70963          	beq	a4,a5,80000b54 <printf+0x158>
    80000ac6:	fd842783          	lw	a5,-40(s0)
    80000aca:	0007871b          	sext.w	a4,a5
    80000ace:	07800793          	li	a5,120
    80000ad2:	10e7cc63          	blt	a5,a4,80000bea <printf+0x1ee>
    80000ad6:	fd842783          	lw	a5,-40(s0)
    80000ada:	0007871b          	sext.w	a4,a5
    80000ade:	07300793          	li	a5,115
    80000ae2:	0af70563          	beq	a4,a5,80000b8c <printf+0x190>
    80000ae6:	fd842783          	lw	a5,-40(s0)
    80000aea:	0007871b          	sext.w	a4,a5
    80000aee:	07300793          	li	a5,115
    80000af2:	0ee7cc63          	blt	a5,a4,80000bea <printf+0x1ee>
    80000af6:	fd842783          	lw	a5,-40(s0)
    80000afa:	0007871b          	sext.w	a4,a5
    80000afe:	07000793          	li	a5,112
    80000b02:	06f70863          	beq	a4,a5,80000b72 <printf+0x176>
    80000b06:	fd842783          	lw	a5,-40(s0)
    80000b0a:	0007871b          	sext.w	a4,a5
    80000b0e:	07000793          	li	a5,112
    80000b12:	0ce7cc63          	blt	a5,a4,80000bea <printf+0x1ee>
    80000b16:	fd842783          	lw	a5,-40(s0)
    80000b1a:	0007871b          	sext.w	a4,a5
    80000b1e:	02500793          	li	a5,37
    80000b22:	0af70d63          	beq	a4,a5,80000bdc <printf+0x1e0>
    80000b26:	fd842783          	lw	a5,-40(s0)
    80000b2a:	0007871b          	sext.w	a4,a5
    80000b2e:	06400793          	li	a5,100
    80000b32:	0af71c63          	bne	a4,a5,80000bea <printf+0x1ee>
    80000b36:	fd043783          	ld	a5,-48(s0)
    80000b3a:	00878713          	addi	a4,a5,8
    80000b3e:	fce43823          	sd	a4,-48(s0)
    80000b42:	439c                	lw	a5,0(a5)
    80000b44:	4605                	li	a2,1
    80000b46:	45a9                	li	a1,10
    80000b48:	853e                	mv	a0,a5
    80000b4a:	00000097          	auipc	ra,0x0
    80000b4e:	d32080e7          	jalr	-718(ra) # 8000087c <printint>
    80000b52:	a855                	j	80000c06 <printf+0x20a>
    80000b54:	fd043783          	ld	a5,-48(s0)
    80000b58:	00878713          	addi	a4,a5,8
    80000b5c:	fce43823          	sd	a4,-48(s0)
    80000b60:	439c                	lw	a5,0(a5)
    80000b62:	4605                	li	a2,1
    80000b64:	45c1                	li	a1,16
    80000b66:	853e                	mv	a0,a5
    80000b68:	00000097          	auipc	ra,0x0
    80000b6c:	d14080e7          	jalr	-748(ra) # 8000087c <printint>
    80000b70:	a859                	j	80000c06 <printf+0x20a>
    80000b72:	fd043783          	ld	a5,-48(s0)
    80000b76:	00878713          	addi	a4,a5,8
    80000b7a:	fce43823          	sd	a4,-48(s0)
    80000b7e:	639c                	ld	a5,0(a5)
    80000b80:	853e                	mv	a0,a5
    80000b82:	00000097          	auipc	ra,0x0
    80000b86:	e04080e7          	jalr	-508(ra) # 80000986 <printptr>
    80000b8a:	a8b5                	j	80000c06 <printf+0x20a>
    80000b8c:	fd043783          	ld	a5,-48(s0)
    80000b90:	00878713          	addi	a4,a5,8
    80000b94:	fce43823          	sd	a4,-48(s0)
    80000b98:	639c                	ld	a5,0(a5)
    80000b9a:	fef43023          	sd	a5,-32(s0)
    80000b9e:	fe043783          	ld	a5,-32(s0)
    80000ba2:	e79d                	bnez	a5,80000bd0 <printf+0x1d4>
    80000ba4:	0000a797          	auipc	a5,0xa
    80000ba8:	47478793          	addi	a5,a5,1140 # 8000b018 <etext+0x18>
    80000bac:	fef43023          	sd	a5,-32(s0)
    80000bb0:	a005                	j	80000bd0 <printf+0x1d4>
    80000bb2:	fe043783          	ld	a5,-32(s0)
    80000bb6:	0007c783          	lbu	a5,0(a5)
    80000bba:	2781                	sext.w	a5,a5
    80000bbc:	853e                	mv	a0,a5
    80000bbe:	fffff097          	auipc	ra,0xfffff
    80000bc2:	76a080e7          	jalr	1898(ra) # 80000328 <consputc>
    80000bc6:	fe043783          	ld	a5,-32(s0)
    80000bca:	0785                	addi	a5,a5,1
    80000bcc:	fef43023          	sd	a5,-32(s0)
    80000bd0:	fe043783          	ld	a5,-32(s0)
    80000bd4:	0007c783          	lbu	a5,0(a5)
    80000bd8:	ffe9                	bnez	a5,80000bb2 <printf+0x1b6>
    80000bda:	a035                	j	80000c06 <printf+0x20a>
    80000bdc:	02500513          	li	a0,37
    80000be0:	fffff097          	auipc	ra,0xfffff
    80000be4:	748080e7          	jalr	1864(ra) # 80000328 <consputc>
    80000be8:	a839                	j	80000c06 <printf+0x20a>
    80000bea:	02500513          	li	a0,37
    80000bee:	fffff097          	auipc	ra,0xfffff
    80000bf2:	73a080e7          	jalr	1850(ra) # 80000328 <consputc>
    80000bf6:	fd842783          	lw	a5,-40(s0)
    80000bfa:	853e                	mv	a0,a5
    80000bfc:	fffff097          	auipc	ra,0xfffff
    80000c00:	72c080e7          	jalr	1836(ra) # 80000328 <consputc>
    80000c04:	0001                	nop
    80000c06:	fec42783          	lw	a5,-20(s0)
    80000c0a:	2785                	addiw	a5,a5,1
    80000c0c:	fef42623          	sw	a5,-20(s0)
    80000c10:	fec42783          	lw	a5,-20(s0)
    80000c14:	fc843703          	ld	a4,-56(s0)
    80000c18:	97ba                	add	a5,a5,a4
    80000c1a:	0007c783          	lbu	a5,0(a5)
    80000c1e:	fcf42c23          	sw	a5,-40(s0)
    80000c22:	fd842783          	lw	a5,-40(s0)
    80000c26:	2781                	sext.w	a5,a5
    80000c28:	e40794e3          	bnez	a5,80000a70 <printf+0x74>
    80000c2c:	a011                	j	80000c30 <printf+0x234>
    80000c2e:	0001                	nop
    80000c30:	fdc42783          	lw	a5,-36(s0)
    80000c34:	2781                	sext.w	a5,a5
    80000c36:	cb89                	beqz	a5,80000c48 <printf+0x24c>
    80000c38:	00013517          	auipc	a0,0x13
    80000c3c:	5e050513          	addi	a0,a0,1504 # 80014218 <pr>
    80000c40:	00000097          	auipc	ra,0x0
    80000c44:	6a4080e7          	jalr	1700(ra) # 800012e4 <release>
    80000c48:	0001                	nop
    80000c4a:	70e2                	ld	ra,56(sp)
    80000c4c:	7442                	ld	s0,48(sp)
    80000c4e:	6109                	addi	sp,sp,128
    80000c50:	8082                	ret

0000000080000c52 <panic>:
    80000c52:	1101                	addi	sp,sp,-32
    80000c54:	ec06                	sd	ra,24(sp)
    80000c56:	e822                	sd	s0,16(sp)
    80000c58:	1000                	addi	s0,sp,32
    80000c5a:	fea43423          	sd	a0,-24(s0)
    80000c5e:	00013797          	auipc	a5,0x13
    80000c62:	5ba78793          	addi	a5,a5,1466 # 80014218 <pr>
    80000c66:	0007ac23          	sw	zero,24(a5)
    80000c6a:	0000a517          	auipc	a0,0xa
    80000c6e:	3b650513          	addi	a0,a0,950 # 8000b020 <etext+0x20>
    80000c72:	00000097          	auipc	ra,0x0
    80000c76:	d8a080e7          	jalr	-630(ra) # 800009fc <printf>
    80000c7a:	fe843503          	ld	a0,-24(s0)
    80000c7e:	00000097          	auipc	ra,0x0
    80000c82:	d7e080e7          	jalr	-642(ra) # 800009fc <printf>
    80000c86:	0000a517          	auipc	a0,0xa
    80000c8a:	3a250513          	addi	a0,a0,930 # 8000b028 <etext+0x28>
    80000c8e:	00000097          	auipc	ra,0x0
    80000c92:	d6e080e7          	jalr	-658(ra) # 800009fc <printf>
    80000c96:	0000b797          	auipc	a5,0xb
    80000c9a:	36a78793          	addi	a5,a5,874 # 8000c000 <panicked>
    80000c9e:	4705                	li	a4,1
    80000ca0:	c398                	sw	a4,0(a5)
    80000ca2:	a001                	j	80000ca2 <panic+0x50>

0000000080000ca4 <printfinit>:
    80000ca4:	1141                	addi	sp,sp,-16
    80000ca6:	e406                	sd	ra,8(sp)
    80000ca8:	e022                	sd	s0,0(sp)
    80000caa:	0800                	addi	s0,sp,16
    80000cac:	0000a597          	auipc	a1,0xa
    80000cb0:	38458593          	addi	a1,a1,900 # 8000b030 <etext+0x30>
    80000cb4:	00013517          	auipc	a0,0x13
    80000cb8:	56450513          	addi	a0,a0,1380 # 80014218 <pr>
    80000cbc:	00000097          	auipc	ra,0x0
    80000cc0:	594080e7          	jalr	1428(ra) # 80001250 <initlock>
    80000cc4:	00013797          	auipc	a5,0x13
    80000cc8:	55478793          	addi	a5,a5,1364 # 80014218 <pr>
    80000ccc:	4705                	li	a4,1
    80000cce:	cf98                	sw	a4,24(a5)
    80000cd0:	0001                	nop
    80000cd2:	60a2                	ld	ra,8(sp)
    80000cd4:	6402                	ld	s0,0(sp)
    80000cd6:	0141                	addi	sp,sp,16
    80000cd8:	8082                	ret

0000000080000cda <uartinit>:
    80000cda:	1141                	addi	sp,sp,-16
    80000cdc:	e406                	sd	ra,8(sp)
    80000cde:	e022                	sd	s0,0(sp)
    80000ce0:	0800                	addi	s0,sp,16
    80000ce2:	100007b7          	lui	a5,0x10000
    80000ce6:	0785                	addi	a5,a5,1
    80000ce8:	00078023          	sb	zero,0(a5) # 10000000 <_entry-0x70000000>
    80000cec:	100007b7          	lui	a5,0x10000
    80000cf0:	078d                	addi	a5,a5,3
    80000cf2:	f8000713          	li	a4,-128
    80000cf6:	00e78023          	sb	a4,0(a5) # 10000000 <_entry-0x70000000>
    80000cfa:	100007b7          	lui	a5,0x10000
    80000cfe:	470d                	li	a4,3
    80000d00:	00e78023          	sb	a4,0(a5) # 10000000 <_entry-0x70000000>
    80000d04:	100007b7          	lui	a5,0x10000
    80000d08:	0785                	addi	a5,a5,1
    80000d0a:	00078023          	sb	zero,0(a5) # 10000000 <_entry-0x70000000>
    80000d0e:	100007b7          	lui	a5,0x10000
    80000d12:	078d                	addi	a5,a5,3
    80000d14:	470d                	li	a4,3
    80000d16:	00e78023          	sb	a4,0(a5) # 10000000 <_entry-0x70000000>
    80000d1a:	100007b7          	lui	a5,0x10000
    80000d1e:	0789                	addi	a5,a5,2
    80000d20:	471d                	li	a4,7
    80000d22:	00e78023          	sb	a4,0(a5) # 10000000 <_entry-0x70000000>
    80000d26:	100007b7          	lui	a5,0x10000
    80000d2a:	0785                	addi	a5,a5,1
    80000d2c:	470d                	li	a4,3
    80000d2e:	00e78023          	sb	a4,0(a5) # 10000000 <_entry-0x70000000>
    80000d32:	0000a597          	auipc	a1,0xa
    80000d36:	30658593          	addi	a1,a1,774 # 8000b038 <etext+0x38>
    80000d3a:	00013517          	auipc	a0,0x13
    80000d3e:	4fe50513          	addi	a0,a0,1278 # 80014238 <uart_tx_lock>
    80000d42:	00000097          	auipc	ra,0x0
    80000d46:	50e080e7          	jalr	1294(ra) # 80001250 <initlock>
    80000d4a:	0001                	nop
    80000d4c:	60a2                	ld	ra,8(sp)
    80000d4e:	6402                	ld	s0,0(sp)
    80000d50:	0141                	addi	sp,sp,16
    80000d52:	8082                	ret

0000000080000d54 <uartputc>:
    80000d54:	1101                	addi	sp,sp,-32
    80000d56:	ec06                	sd	ra,24(sp)
    80000d58:	e822                	sd	s0,16(sp)
    80000d5a:	1000                	addi	s0,sp,32
    80000d5c:	87aa                	mv	a5,a0
    80000d5e:	fef42623          	sw	a5,-20(s0)
    80000d62:	00013517          	auipc	a0,0x13
    80000d66:	4d650513          	addi	a0,a0,1238 # 80014238 <uart_tx_lock>
    80000d6a:	00000097          	auipc	ra,0x0
    80000d6e:	516080e7          	jalr	1302(ra) # 80001280 <acquire>
    80000d72:	0000b797          	auipc	a5,0xb
    80000d76:	28e78793          	addi	a5,a5,654 # 8000c000 <panicked>
    80000d7a:	439c                	lw	a5,0(a5)
    80000d7c:	2781                	sext.w	a5,a5
    80000d7e:	c391                	beqz	a5,80000d82 <uartputc+0x2e>
    80000d80:	a001                	j	80000d80 <uartputc+0x2c>
    80000d82:	0000b797          	auipc	a5,0xb
    80000d86:	28278793          	addi	a5,a5,642 # 8000c004 <uart_tx_w>
    80000d8a:	439c                	lw	a5,0(a5)
    80000d8c:	2785                	addiw	a5,a5,1
    80000d8e:	2781                	sext.w	a5,a5
    80000d90:	873e                	mv	a4,a5
    80000d92:	41f7579b          	sraiw	a5,a4,0x1f
    80000d96:	01b7d79b          	srliw	a5,a5,0x1b
    80000d9a:	9f3d                	addw	a4,a4,a5
    80000d9c:	8b7d                	andi	a4,a4,31
    80000d9e:	40f707bb          	subw	a5,a4,a5
    80000da2:	0007871b          	sext.w	a4,a5
    80000da6:	0000b797          	auipc	a5,0xb
    80000daa:	26278793          	addi	a5,a5,610 # 8000c008 <uart_tx_r>
    80000dae:	439c                	lw	a5,0(a5)
    80000db0:	00f71f63          	bne	a4,a5,80000dce <uartputc+0x7a>
    80000db4:	00013597          	auipc	a1,0x13
    80000db8:	48458593          	addi	a1,a1,1156 # 80014238 <uart_tx_lock>
    80000dbc:	0000b517          	auipc	a0,0xb
    80000dc0:	24c50513          	addi	a0,a0,588 # 8000c008 <uart_tx_r>
    80000dc4:	00002097          	auipc	ra,0x2
    80000dc8:	5fa080e7          	jalr	1530(ra) # 800033be <sleep>
    80000dcc:	bf5d                	j	80000d82 <uartputc+0x2e>
    80000dce:	0000b797          	auipc	a5,0xb
    80000dd2:	23678793          	addi	a5,a5,566 # 8000c004 <uart_tx_w>
    80000dd6:	439c                	lw	a5,0(a5)
    80000dd8:	fec42703          	lw	a4,-20(s0)
    80000ddc:	0ff77713          	andi	a4,a4,255
    80000de0:	00013697          	auipc	a3,0x13
    80000de4:	47068693          	addi	a3,a3,1136 # 80014250 <uart_tx_buf>
    80000de8:	97b6                	add	a5,a5,a3
    80000dea:	00e78023          	sb	a4,0(a5)
    80000dee:	0000b797          	auipc	a5,0xb
    80000df2:	21678793          	addi	a5,a5,534 # 8000c004 <uart_tx_w>
    80000df6:	439c                	lw	a5,0(a5)
    80000df8:	2785                	addiw	a5,a5,1
    80000dfa:	2781                	sext.w	a5,a5
    80000dfc:	873e                	mv	a4,a5
    80000dfe:	41f7579b          	sraiw	a5,a4,0x1f
    80000e02:	01b7d79b          	srliw	a5,a5,0x1b
    80000e06:	9f3d                	addw	a4,a4,a5
    80000e08:	8b7d                	andi	a4,a4,31
    80000e0a:	40f707bb          	subw	a5,a4,a5
    80000e0e:	0007871b          	sext.w	a4,a5
    80000e12:	0000b797          	auipc	a5,0xb
    80000e16:	1f278793          	addi	a5,a5,498 # 8000c004 <uart_tx_w>
    80000e1a:	c398                	sw	a4,0(a5)
    80000e1c:	00000097          	auipc	ra,0x0
    80000e20:	084080e7          	jalr	132(ra) # 80000ea0 <uartstart>
    80000e24:	00013517          	auipc	a0,0x13
    80000e28:	41450513          	addi	a0,a0,1044 # 80014238 <uart_tx_lock>
    80000e2c:	00000097          	auipc	ra,0x0
    80000e30:	4b8080e7          	jalr	1208(ra) # 800012e4 <release>
    80000e34:	0001                	nop
    80000e36:	60e2                	ld	ra,24(sp)
    80000e38:	6442                	ld	s0,16(sp)
    80000e3a:	6105                	addi	sp,sp,32
    80000e3c:	8082                	ret

0000000080000e3e <uartputc_sync>:
    80000e3e:	1101                	addi	sp,sp,-32
    80000e40:	ec06                	sd	ra,24(sp)
    80000e42:	e822                	sd	s0,16(sp)
    80000e44:	1000                	addi	s0,sp,32
    80000e46:	87aa                	mv	a5,a0
    80000e48:	fef42623          	sw	a5,-20(s0)
    80000e4c:	00000097          	auipc	ra,0x0
    80000e50:	532080e7          	jalr	1330(ra) # 8000137e <push_off>
    80000e54:	0000b797          	auipc	a5,0xb
    80000e58:	1ac78793          	addi	a5,a5,428 # 8000c000 <panicked>
    80000e5c:	439c                	lw	a5,0(a5)
    80000e5e:	2781                	sext.w	a5,a5
    80000e60:	c391                	beqz	a5,80000e64 <uartputc_sync+0x26>
    80000e62:	a001                	j	80000e62 <uartputc_sync+0x24>
    80000e64:	0001                	nop
    80000e66:	100007b7          	lui	a5,0x10000
    80000e6a:	0795                	addi	a5,a5,5
    80000e6c:	0007c783          	lbu	a5,0(a5) # 10000000 <_entry-0x70000000>
    80000e70:	0ff7f793          	andi	a5,a5,255
    80000e74:	2781                	sext.w	a5,a5
    80000e76:	0207f793          	andi	a5,a5,32
    80000e7a:	2781                	sext.w	a5,a5
    80000e7c:	d7ed                	beqz	a5,80000e66 <uartputc_sync+0x28>
    80000e7e:	100007b7          	lui	a5,0x10000
    80000e82:	fec42703          	lw	a4,-20(s0)
    80000e86:	0ff77713          	andi	a4,a4,255
    80000e8a:	00e78023          	sb	a4,0(a5) # 10000000 <_entry-0x70000000>
    80000e8e:	00000097          	auipc	ra,0x0
    80000e92:	548080e7          	jalr	1352(ra) # 800013d6 <pop_off>
    80000e96:	0001                	nop
    80000e98:	60e2                	ld	ra,24(sp)
    80000e9a:	6442                	ld	s0,16(sp)
    80000e9c:	6105                	addi	sp,sp,32
    80000e9e:	8082                	ret

0000000080000ea0 <uartstart>:
    80000ea0:	1101                	addi	sp,sp,-32
    80000ea2:	ec06                	sd	ra,24(sp)
    80000ea4:	e822                	sd	s0,16(sp)
    80000ea6:	1000                	addi	s0,sp,32
    80000ea8:	0000b797          	auipc	a5,0xb
    80000eac:	15c78793          	addi	a5,a5,348 # 8000c004 <uart_tx_w>
    80000eb0:	4398                	lw	a4,0(a5)
    80000eb2:	0000b797          	auipc	a5,0xb
    80000eb6:	15678793          	addi	a5,a5,342 # 8000c008 <uart_tx_r>
    80000eba:	439c                	lw	a5,0(a5)
    80000ebc:	08f70463          	beq	a4,a5,80000f44 <uartstart+0xa4>
    80000ec0:	100007b7          	lui	a5,0x10000
    80000ec4:	0795                	addi	a5,a5,5
    80000ec6:	0007c783          	lbu	a5,0(a5) # 10000000 <_entry-0x70000000>
    80000eca:	0ff7f793          	andi	a5,a5,255
    80000ece:	2781                	sext.w	a5,a5
    80000ed0:	0207f793          	andi	a5,a5,32
    80000ed4:	2781                	sext.w	a5,a5
    80000ed6:	cbad                	beqz	a5,80000f48 <uartstart+0xa8>
    80000ed8:	0000b797          	auipc	a5,0xb
    80000edc:	13078793          	addi	a5,a5,304 # 8000c008 <uart_tx_r>
    80000ee0:	439c                	lw	a5,0(a5)
    80000ee2:	00013717          	auipc	a4,0x13
    80000ee6:	36e70713          	addi	a4,a4,878 # 80014250 <uart_tx_buf>
    80000eea:	97ba                	add	a5,a5,a4
    80000eec:	0007c783          	lbu	a5,0(a5)
    80000ef0:	fef42623          	sw	a5,-20(s0)
    80000ef4:	0000b797          	auipc	a5,0xb
    80000ef8:	11478793          	addi	a5,a5,276 # 8000c008 <uart_tx_r>
    80000efc:	439c                	lw	a5,0(a5)
    80000efe:	2785                	addiw	a5,a5,1
    80000f00:	2781                	sext.w	a5,a5
    80000f02:	873e                	mv	a4,a5
    80000f04:	41f7579b          	sraiw	a5,a4,0x1f
    80000f08:	01b7d79b          	srliw	a5,a5,0x1b
    80000f0c:	9f3d                	addw	a4,a4,a5
    80000f0e:	8b7d                	andi	a4,a4,31
    80000f10:	40f707bb          	subw	a5,a4,a5
    80000f14:	0007871b          	sext.w	a4,a5
    80000f18:	0000b797          	auipc	a5,0xb
    80000f1c:	0f078793          	addi	a5,a5,240 # 8000c008 <uart_tx_r>
    80000f20:	c398                	sw	a4,0(a5)
    80000f22:	0000b517          	auipc	a0,0xb
    80000f26:	0e650513          	addi	a0,a0,230 # 8000c008 <uart_tx_r>
    80000f2a:	00002097          	auipc	ra,0x2
    80000f2e:	528080e7          	jalr	1320(ra) # 80003452 <wakeup>
    80000f32:	100007b7          	lui	a5,0x10000
    80000f36:	fec42703          	lw	a4,-20(s0)
    80000f3a:	0ff77713          	andi	a4,a4,255
    80000f3e:	00e78023          	sb	a4,0(a5) # 10000000 <_entry-0x70000000>
    80000f42:	b79d                	j	80000ea8 <uartstart+0x8>
    80000f44:	0001                	nop
    80000f46:	a011                	j	80000f4a <uartstart+0xaa>
    80000f48:	0001                	nop
    80000f4a:	60e2                	ld	ra,24(sp)
    80000f4c:	6442                	ld	s0,16(sp)
    80000f4e:	6105                	addi	sp,sp,32
    80000f50:	8082                	ret

0000000080000f52 <uartgetc>:
    80000f52:	1141                	addi	sp,sp,-16
    80000f54:	e422                	sd	s0,8(sp)
    80000f56:	0800                	addi	s0,sp,16
    80000f58:	100007b7          	lui	a5,0x10000
    80000f5c:	0795                	addi	a5,a5,5
    80000f5e:	0007c783          	lbu	a5,0(a5) # 10000000 <_entry-0x70000000>
    80000f62:	0ff7f793          	andi	a5,a5,255
    80000f66:	2781                	sext.w	a5,a5
    80000f68:	8b85                	andi	a5,a5,1
    80000f6a:	2781                	sext.w	a5,a5
    80000f6c:	cb89                	beqz	a5,80000f7e <uartgetc+0x2c>
    80000f6e:	100007b7          	lui	a5,0x10000
    80000f72:	0007c783          	lbu	a5,0(a5) # 10000000 <_entry-0x70000000>
    80000f76:	0ff7f793          	andi	a5,a5,255
    80000f7a:	2781                	sext.w	a5,a5
    80000f7c:	a011                	j	80000f80 <uartgetc+0x2e>
    80000f7e:	57fd                	li	a5,-1
    80000f80:	853e                	mv	a0,a5
    80000f82:	6422                	ld	s0,8(sp)
    80000f84:	0141                	addi	sp,sp,16
    80000f86:	8082                	ret

0000000080000f88 <uartintr>:
    80000f88:	1101                	addi	sp,sp,-32
    80000f8a:	ec06                	sd	ra,24(sp)
    80000f8c:	e822                	sd	s0,16(sp)
    80000f8e:	1000                	addi	s0,sp,32
    80000f90:	00000097          	auipc	ra,0x0
    80000f94:	fc2080e7          	jalr	-62(ra) # 80000f52 <uartgetc>
    80000f98:	87aa                	mv	a5,a0
    80000f9a:	fef42623          	sw	a5,-20(s0)
    80000f9e:	fec42783          	lw	a5,-20(s0)
    80000fa2:	0007871b          	sext.w	a4,a5
    80000fa6:	57fd                	li	a5,-1
    80000fa8:	00f70a63          	beq	a4,a5,80000fbc <uartintr+0x34>
    80000fac:	fec42783          	lw	a5,-20(s0)
    80000fb0:	853e                	mv	a0,a5
    80000fb2:	fffff097          	auipc	ra,0xfffff
    80000fb6:	60c080e7          	jalr	1548(ra) # 800005be <consoleintr>
    80000fba:	bfd9                	j	80000f90 <uartintr+0x8>
    80000fbc:	0001                	nop
    80000fbe:	00013517          	auipc	a0,0x13
    80000fc2:	27a50513          	addi	a0,a0,634 # 80014238 <uart_tx_lock>
    80000fc6:	00000097          	auipc	ra,0x0
    80000fca:	2ba080e7          	jalr	698(ra) # 80001280 <acquire>
    80000fce:	00000097          	auipc	ra,0x0
    80000fd2:	ed2080e7          	jalr	-302(ra) # 80000ea0 <uartstart>
    80000fd6:	00013517          	auipc	a0,0x13
    80000fda:	26250513          	addi	a0,a0,610 # 80014238 <uart_tx_lock>
    80000fde:	00000097          	auipc	ra,0x0
    80000fe2:	306080e7          	jalr	774(ra) # 800012e4 <release>
    80000fe6:	0001                	nop
    80000fe8:	60e2                	ld	ra,24(sp)
    80000fea:	6442                	ld	s0,16(sp)
    80000fec:	6105                	addi	sp,sp,32
    80000fee:	8082                	ret

0000000080000ff0 <kinit>:
    80000ff0:	1141                	addi	sp,sp,-16
    80000ff2:	e406                	sd	ra,8(sp)
    80000ff4:	e022                	sd	s0,0(sp)
    80000ff6:	0800                	addi	s0,sp,16
    80000ff8:	0000a597          	auipc	a1,0xa
    80000ffc:	04858593          	addi	a1,a1,72 # 8000b040 <etext+0x40>
    80001000:	00013517          	auipc	a0,0x13
    80001004:	27050513          	addi	a0,a0,624 # 80014270 <kmem>
    80001008:	00000097          	auipc	ra,0x0
    8000100c:	248080e7          	jalr	584(ra) # 80001250 <initlock>
    80001010:	47c5                	li	a5,17
    80001012:	01b79593          	slli	a1,a5,0x1b
    80001016:	00028517          	auipc	a0,0x28
    8000101a:	fea50513          	addi	a0,a0,-22 # 80029000 <end>
    8000101e:	00000097          	auipc	ra,0x0
    80001022:	012080e7          	jalr	18(ra) # 80001030 <freerange>
    80001026:	0001                	nop
    80001028:	60a2                	ld	ra,8(sp)
    8000102a:	6402                	ld	s0,0(sp)
    8000102c:	0141                	addi	sp,sp,16
    8000102e:	8082                	ret

0000000080001030 <freerange>:
    80001030:	7179                	addi	sp,sp,-48
    80001032:	f406                	sd	ra,40(sp)
    80001034:	f022                	sd	s0,32(sp)
    80001036:	1800                	addi	s0,sp,48
    80001038:	fca43c23          	sd	a0,-40(s0)
    8000103c:	fcb43823          	sd	a1,-48(s0)
    80001040:	fd843703          	ld	a4,-40(s0)
    80001044:	6785                	lui	a5,0x1
    80001046:	17fd                	addi	a5,a5,-1
    80001048:	973e                	add	a4,a4,a5
    8000104a:	77fd                	lui	a5,0xfffff
    8000104c:	8ff9                	and	a5,a5,a4
    8000104e:	fef43423          	sd	a5,-24(s0)
    80001052:	a829                	j	8000106c <freerange+0x3c>
    80001054:	fe843503          	ld	a0,-24(s0)
    80001058:	00000097          	auipc	ra,0x0
    8000105c:	030080e7          	jalr	48(ra) # 80001088 <kfree>
    80001060:	fe843703          	ld	a4,-24(s0)
    80001064:	6785                	lui	a5,0x1
    80001066:	97ba                	add	a5,a5,a4
    80001068:	fef43423          	sd	a5,-24(s0)
    8000106c:	fe843703          	ld	a4,-24(s0)
    80001070:	6785                	lui	a5,0x1
    80001072:	97ba                	add	a5,a5,a4
    80001074:	fd043703          	ld	a4,-48(s0)
    80001078:	fcf77ee3          	bgeu	a4,a5,80001054 <freerange+0x24>
    8000107c:	0001                	nop
    8000107e:	0001                	nop
    80001080:	70a2                	ld	ra,40(sp)
    80001082:	7402                	ld	s0,32(sp)
    80001084:	6145                	addi	sp,sp,48
    80001086:	8082                	ret

0000000080001088 <kfree>:
    80001088:	7179                	addi	sp,sp,-48
    8000108a:	f406                	sd	ra,40(sp)
    8000108c:	f022                	sd	s0,32(sp)
    8000108e:	1800                	addi	s0,sp,48
    80001090:	fca43c23          	sd	a0,-40(s0)
    80001094:	fd843703          	ld	a4,-40(s0)
    80001098:	6785                	lui	a5,0x1
    8000109a:	17fd                	addi	a5,a5,-1
    8000109c:	8ff9                	and	a5,a5,a4
    8000109e:	ef99                	bnez	a5,800010bc <kfree+0x34>
    800010a0:	fd843703          	ld	a4,-40(s0)
    800010a4:	00028797          	auipc	a5,0x28
    800010a8:	f5c78793          	addi	a5,a5,-164 # 80029000 <end>
    800010ac:	00f76863          	bltu	a4,a5,800010bc <kfree+0x34>
    800010b0:	fd843703          	ld	a4,-40(s0)
    800010b4:	47c5                	li	a5,17
    800010b6:	07ee                	slli	a5,a5,0x1b
    800010b8:	00f76a63          	bltu	a4,a5,800010cc <kfree+0x44>
    800010bc:	0000a517          	auipc	a0,0xa
    800010c0:	f8c50513          	addi	a0,a0,-116 # 8000b048 <etext+0x48>
    800010c4:	00000097          	auipc	ra,0x0
    800010c8:	b8e080e7          	jalr	-1138(ra) # 80000c52 <panic>
    800010cc:	6605                	lui	a2,0x1
    800010ce:	4585                	li	a1,1
    800010d0:	fd843503          	ld	a0,-40(s0)
    800010d4:	00000097          	auipc	ra,0x0
    800010d8:	380080e7          	jalr	896(ra) # 80001454 <memset>
    800010dc:	fd843783          	ld	a5,-40(s0)
    800010e0:	fef43423          	sd	a5,-24(s0)
    800010e4:	00013517          	auipc	a0,0x13
    800010e8:	18c50513          	addi	a0,a0,396 # 80014270 <kmem>
    800010ec:	00000097          	auipc	ra,0x0
    800010f0:	194080e7          	jalr	404(ra) # 80001280 <acquire>
    800010f4:	00013797          	auipc	a5,0x13
    800010f8:	17c78793          	addi	a5,a5,380 # 80014270 <kmem>
    800010fc:	6f98                	ld	a4,24(a5)
    800010fe:	fe843783          	ld	a5,-24(s0)
    80001102:	e398                	sd	a4,0(a5)
    80001104:	00013797          	auipc	a5,0x13
    80001108:	16c78793          	addi	a5,a5,364 # 80014270 <kmem>
    8000110c:	fe843703          	ld	a4,-24(s0)
    80001110:	ef98                	sd	a4,24(a5)
    80001112:	00013517          	auipc	a0,0x13
    80001116:	15e50513          	addi	a0,a0,350 # 80014270 <kmem>
    8000111a:	00000097          	auipc	ra,0x0
    8000111e:	1ca080e7          	jalr	458(ra) # 800012e4 <release>
    80001122:	0001                	nop
    80001124:	70a2                	ld	ra,40(sp)
    80001126:	7402                	ld	s0,32(sp)
    80001128:	6145                	addi	sp,sp,48
    8000112a:	8082                	ret

000000008000112c <kalloc>:
    8000112c:	1101                	addi	sp,sp,-32
    8000112e:	ec06                	sd	ra,24(sp)
    80001130:	e822                	sd	s0,16(sp)
    80001132:	1000                	addi	s0,sp,32
    80001134:	00013517          	auipc	a0,0x13
    80001138:	13c50513          	addi	a0,a0,316 # 80014270 <kmem>
    8000113c:	00000097          	auipc	ra,0x0
    80001140:	144080e7          	jalr	324(ra) # 80001280 <acquire>
    80001144:	00013797          	auipc	a5,0x13
    80001148:	12c78793          	addi	a5,a5,300 # 80014270 <kmem>
    8000114c:	6f9c                	ld	a5,24(a5)
    8000114e:	fef43423          	sd	a5,-24(s0)
    80001152:	fe843783          	ld	a5,-24(s0)
    80001156:	cb89                	beqz	a5,80001168 <kalloc+0x3c>
    80001158:	fe843783          	ld	a5,-24(s0)
    8000115c:	6398                	ld	a4,0(a5)
    8000115e:	00013797          	auipc	a5,0x13
    80001162:	11278793          	addi	a5,a5,274 # 80014270 <kmem>
    80001166:	ef98                	sd	a4,24(a5)
    80001168:	00013517          	auipc	a0,0x13
    8000116c:	10850513          	addi	a0,a0,264 # 80014270 <kmem>
    80001170:	00000097          	auipc	ra,0x0
    80001174:	174080e7          	jalr	372(ra) # 800012e4 <release>
    80001178:	fe843783          	ld	a5,-24(s0)
    8000117c:	cb89                	beqz	a5,8000118e <kalloc+0x62>
    8000117e:	6605                	lui	a2,0x1
    80001180:	4595                	li	a1,5
    80001182:	fe843503          	ld	a0,-24(s0)
    80001186:	00000097          	auipc	ra,0x0
    8000118a:	2ce080e7          	jalr	718(ra) # 80001454 <memset>
    8000118e:	fe843783          	ld	a5,-24(s0)
    80001192:	853e                	mv	a0,a5
    80001194:	60e2                	ld	ra,24(sp)
    80001196:	6442                	ld	s0,16(sp)
    80001198:	6105                	addi	sp,sp,32
    8000119a:	8082                	ret

000000008000119c <r_sstatus>:
    8000119c:	1101                	addi	sp,sp,-32
    8000119e:	ec22                	sd	s0,24(sp)
    800011a0:	1000                	addi	s0,sp,32
    800011a2:	100027f3          	csrr	a5,sstatus
    800011a6:	fef43423          	sd	a5,-24(s0)
    800011aa:	fe843783          	ld	a5,-24(s0)
    800011ae:	853e                	mv	a0,a5
    800011b0:	6462                	ld	s0,24(sp)
    800011b2:	6105                	addi	sp,sp,32
    800011b4:	8082                	ret

00000000800011b6 <w_sstatus>:
    800011b6:	1101                	addi	sp,sp,-32
    800011b8:	ec22                	sd	s0,24(sp)
    800011ba:	1000                	addi	s0,sp,32
    800011bc:	fea43423          	sd	a0,-24(s0)
    800011c0:	fe843783          	ld	a5,-24(s0)
    800011c4:	10079073          	csrw	sstatus,a5
    800011c8:	0001                	nop
    800011ca:	6462                	ld	s0,24(sp)
    800011cc:	6105                	addi	sp,sp,32
    800011ce:	8082                	ret

00000000800011d0 <intr_on>:
    800011d0:	1141                	addi	sp,sp,-16
    800011d2:	e406                	sd	ra,8(sp)
    800011d4:	e022                	sd	s0,0(sp)
    800011d6:	0800                	addi	s0,sp,16
    800011d8:	00000097          	auipc	ra,0x0
    800011dc:	fc4080e7          	jalr	-60(ra) # 8000119c <r_sstatus>
    800011e0:	87aa                	mv	a5,a0
    800011e2:	0027e793          	ori	a5,a5,2
    800011e6:	853e                	mv	a0,a5
    800011e8:	00000097          	auipc	ra,0x0
    800011ec:	fce080e7          	jalr	-50(ra) # 800011b6 <w_sstatus>
    800011f0:	0001                	nop
    800011f2:	60a2                	ld	ra,8(sp)
    800011f4:	6402                	ld	s0,0(sp)
    800011f6:	0141                	addi	sp,sp,16
    800011f8:	8082                	ret

00000000800011fa <intr_off>:
    800011fa:	1141                	addi	sp,sp,-16
    800011fc:	e406                	sd	ra,8(sp)
    800011fe:	e022                	sd	s0,0(sp)
    80001200:	0800                	addi	s0,sp,16
    80001202:	00000097          	auipc	ra,0x0
    80001206:	f9a080e7          	jalr	-102(ra) # 8000119c <r_sstatus>
    8000120a:	87aa                	mv	a5,a0
    8000120c:	9bf5                	andi	a5,a5,-3
    8000120e:	853e                	mv	a0,a5
    80001210:	00000097          	auipc	ra,0x0
    80001214:	fa6080e7          	jalr	-90(ra) # 800011b6 <w_sstatus>
    80001218:	0001                	nop
    8000121a:	60a2                	ld	ra,8(sp)
    8000121c:	6402                	ld	s0,0(sp)
    8000121e:	0141                	addi	sp,sp,16
    80001220:	8082                	ret

0000000080001222 <intr_get>:
    80001222:	1101                	addi	sp,sp,-32
    80001224:	ec06                	sd	ra,24(sp)
    80001226:	e822                	sd	s0,16(sp)
    80001228:	1000                	addi	s0,sp,32
    8000122a:	00000097          	auipc	ra,0x0
    8000122e:	f72080e7          	jalr	-142(ra) # 8000119c <r_sstatus>
    80001232:	fea43423          	sd	a0,-24(s0)
    80001236:	fe843783          	ld	a5,-24(s0)
    8000123a:	8b89                	andi	a5,a5,2
    8000123c:	00f037b3          	snez	a5,a5
    80001240:	0ff7f793          	andi	a5,a5,255
    80001244:	2781                	sext.w	a5,a5
    80001246:	853e                	mv	a0,a5
    80001248:	60e2                	ld	ra,24(sp)
    8000124a:	6442                	ld	s0,16(sp)
    8000124c:	6105                	addi	sp,sp,32
    8000124e:	8082                	ret

0000000080001250 <initlock>:
    80001250:	1101                	addi	sp,sp,-32
    80001252:	ec22                	sd	s0,24(sp)
    80001254:	1000                	addi	s0,sp,32
    80001256:	fea43423          	sd	a0,-24(s0)
    8000125a:	feb43023          	sd	a1,-32(s0)
    8000125e:	fe843783          	ld	a5,-24(s0)
    80001262:	fe043703          	ld	a4,-32(s0)
    80001266:	e798                	sd	a4,8(a5)
    80001268:	fe843783          	ld	a5,-24(s0)
    8000126c:	0007a023          	sw	zero,0(a5)
    80001270:	fe843783          	ld	a5,-24(s0)
    80001274:	0007b823          	sd	zero,16(a5)
    80001278:	0001                	nop
    8000127a:	6462                	ld	s0,24(sp)
    8000127c:	6105                	addi	sp,sp,32
    8000127e:	8082                	ret

0000000080001280 <acquire>:
    80001280:	1101                	addi	sp,sp,-32
    80001282:	ec06                	sd	ra,24(sp)
    80001284:	e822                	sd	s0,16(sp)
    80001286:	1000                	addi	s0,sp,32
    80001288:	fea43423          	sd	a0,-24(s0)
    8000128c:	00000097          	auipc	ra,0x0
    80001290:	0f2080e7          	jalr	242(ra) # 8000137e <push_off>
    80001294:	fe843503          	ld	a0,-24(s0)
    80001298:	00000097          	auipc	ra,0x0
    8000129c:	0a2080e7          	jalr	162(ra) # 8000133a <holding>
    800012a0:	87aa                	mv	a5,a0
    800012a2:	cb89                	beqz	a5,800012b4 <acquire+0x34>
    800012a4:	0000a517          	auipc	a0,0xa
    800012a8:	dac50513          	addi	a0,a0,-596 # 8000b050 <etext+0x50>
    800012ac:	00000097          	auipc	ra,0x0
    800012b0:	9a6080e7          	jalr	-1626(ra) # 80000c52 <panic>
    800012b4:	0001                	nop
    800012b6:	fe843783          	ld	a5,-24(s0)
    800012ba:	4705                	li	a4,1
    800012bc:	0ce7a72f          	amoswap.w.aq	a4,a4,(a5)
    800012c0:	0007079b          	sext.w	a5,a4
    800012c4:	fbed                	bnez	a5,800012b6 <acquire+0x36>
    800012c6:	0ff0000f          	fence
    800012ca:	00001097          	auipc	ra,0x1
    800012ce:	4e6080e7          	jalr	1254(ra) # 800027b0 <mycpu>
    800012d2:	872a                	mv	a4,a0
    800012d4:	fe843783          	ld	a5,-24(s0)
    800012d8:	eb98                	sd	a4,16(a5)
    800012da:	0001                	nop
    800012dc:	60e2                	ld	ra,24(sp)
    800012de:	6442                	ld	s0,16(sp)
    800012e0:	6105                	addi	sp,sp,32
    800012e2:	8082                	ret

00000000800012e4 <release>:
    800012e4:	1101                	addi	sp,sp,-32
    800012e6:	ec06                	sd	ra,24(sp)
    800012e8:	e822                	sd	s0,16(sp)
    800012ea:	1000                	addi	s0,sp,32
    800012ec:	fea43423          	sd	a0,-24(s0)
    800012f0:	fe843503          	ld	a0,-24(s0)
    800012f4:	00000097          	auipc	ra,0x0
    800012f8:	046080e7          	jalr	70(ra) # 8000133a <holding>
    800012fc:	87aa                	mv	a5,a0
    800012fe:	eb89                	bnez	a5,80001310 <release+0x2c>
    80001300:	0000a517          	auipc	a0,0xa
    80001304:	d5850513          	addi	a0,a0,-680 # 8000b058 <etext+0x58>
    80001308:	00000097          	auipc	ra,0x0
    8000130c:	94a080e7          	jalr	-1718(ra) # 80000c52 <panic>
    80001310:	fe843783          	ld	a5,-24(s0)
    80001314:	0007b823          	sd	zero,16(a5)
    80001318:	0ff0000f          	fence
    8000131c:	fe843783          	ld	a5,-24(s0)
    80001320:	0f50000f          	fence	iorw,ow
    80001324:	0807a02f          	amoswap.w	zero,zero,(a5)
    80001328:	00000097          	auipc	ra,0x0
    8000132c:	0ae080e7          	jalr	174(ra) # 800013d6 <pop_off>
    80001330:	0001                	nop
    80001332:	60e2                	ld	ra,24(sp)
    80001334:	6442                	ld	s0,16(sp)
    80001336:	6105                	addi	sp,sp,32
    80001338:	8082                	ret

000000008000133a <holding>:
    8000133a:	7139                	addi	sp,sp,-64
    8000133c:	fc06                	sd	ra,56(sp)
    8000133e:	f822                	sd	s0,48(sp)
    80001340:	f426                	sd	s1,40(sp)
    80001342:	0080                	addi	s0,sp,64
    80001344:	fca43423          	sd	a0,-56(s0)
    80001348:	fc843783          	ld	a5,-56(s0)
    8000134c:	439c                	lw	a5,0(a5)
    8000134e:	cf89                	beqz	a5,80001368 <holding+0x2e>
    80001350:	fc843783          	ld	a5,-56(s0)
    80001354:	6b84                	ld	s1,16(a5)
    80001356:	00001097          	auipc	ra,0x1
    8000135a:	45a080e7          	jalr	1114(ra) # 800027b0 <mycpu>
    8000135e:	87aa                	mv	a5,a0
    80001360:	00f49463          	bne	s1,a5,80001368 <holding+0x2e>
    80001364:	4785                	li	a5,1
    80001366:	a011                	j	8000136a <holding+0x30>
    80001368:	4781                	li	a5,0
    8000136a:	fcf42e23          	sw	a5,-36(s0)
    8000136e:	fdc42783          	lw	a5,-36(s0)
    80001372:	853e                	mv	a0,a5
    80001374:	70e2                	ld	ra,56(sp)
    80001376:	7442                	ld	s0,48(sp)
    80001378:	74a2                	ld	s1,40(sp)
    8000137a:	6121                	addi	sp,sp,64
    8000137c:	8082                	ret

000000008000137e <push_off>:
    8000137e:	1101                	addi	sp,sp,-32
    80001380:	ec06                	sd	ra,24(sp)
    80001382:	e822                	sd	s0,16(sp)
    80001384:	1000                	addi	s0,sp,32
    80001386:	00000097          	auipc	ra,0x0
    8000138a:	e9c080e7          	jalr	-356(ra) # 80001222 <intr_get>
    8000138e:	87aa                	mv	a5,a0
    80001390:	fef42623          	sw	a5,-20(s0)
    80001394:	00000097          	auipc	ra,0x0
    80001398:	e66080e7          	jalr	-410(ra) # 800011fa <intr_off>
    8000139c:	00001097          	auipc	ra,0x1
    800013a0:	414080e7          	jalr	1044(ra) # 800027b0 <mycpu>
    800013a4:	87aa                	mv	a5,a0
    800013a6:	5fbc                	lw	a5,120(a5)
    800013a8:	eb89                	bnez	a5,800013ba <push_off+0x3c>
    800013aa:	00001097          	auipc	ra,0x1
    800013ae:	406080e7          	jalr	1030(ra) # 800027b0 <mycpu>
    800013b2:	872a                	mv	a4,a0
    800013b4:	fec42783          	lw	a5,-20(s0)
    800013b8:	df7c                	sw	a5,124(a4)
    800013ba:	00001097          	auipc	ra,0x1
    800013be:	3f6080e7          	jalr	1014(ra) # 800027b0 <mycpu>
    800013c2:	87aa                	mv	a5,a0
    800013c4:	5fb8                	lw	a4,120(a5)
    800013c6:	2705                	addiw	a4,a4,1
    800013c8:	2701                	sext.w	a4,a4
    800013ca:	dfb8                	sw	a4,120(a5)
    800013cc:	0001                	nop
    800013ce:	60e2                	ld	ra,24(sp)
    800013d0:	6442                	ld	s0,16(sp)
    800013d2:	6105                	addi	sp,sp,32
    800013d4:	8082                	ret

00000000800013d6 <pop_off>:
    800013d6:	1101                	addi	sp,sp,-32
    800013d8:	ec06                	sd	ra,24(sp)
    800013da:	e822                	sd	s0,16(sp)
    800013dc:	1000                	addi	s0,sp,32
    800013de:	00001097          	auipc	ra,0x1
    800013e2:	3d2080e7          	jalr	978(ra) # 800027b0 <mycpu>
    800013e6:	fea43423          	sd	a0,-24(s0)
    800013ea:	00000097          	auipc	ra,0x0
    800013ee:	e38080e7          	jalr	-456(ra) # 80001222 <intr_get>
    800013f2:	87aa                	mv	a5,a0
    800013f4:	cb89                	beqz	a5,80001406 <pop_off+0x30>
    800013f6:	0000a517          	auipc	a0,0xa
    800013fa:	c6a50513          	addi	a0,a0,-918 # 8000b060 <etext+0x60>
    800013fe:	00000097          	auipc	ra,0x0
    80001402:	854080e7          	jalr	-1964(ra) # 80000c52 <panic>
    80001406:	fe843783          	ld	a5,-24(s0)
    8000140a:	5fbc                	lw	a5,120(a5)
    8000140c:	00f04a63          	bgtz	a5,80001420 <pop_off+0x4a>
    80001410:	0000a517          	auipc	a0,0xa
    80001414:	c6850513          	addi	a0,a0,-920 # 8000b078 <etext+0x78>
    80001418:	00000097          	auipc	ra,0x0
    8000141c:	83a080e7          	jalr	-1990(ra) # 80000c52 <panic>
    80001420:	fe843783          	ld	a5,-24(s0)
    80001424:	5fbc                	lw	a5,120(a5)
    80001426:	37fd                	addiw	a5,a5,-1
    80001428:	0007871b          	sext.w	a4,a5
    8000142c:	fe843783          	ld	a5,-24(s0)
    80001430:	dfb8                	sw	a4,120(a5)
    80001432:	fe843783          	ld	a5,-24(s0)
    80001436:	5fbc                	lw	a5,120(a5)
    80001438:	eb89                	bnez	a5,8000144a <pop_off+0x74>
    8000143a:	fe843783          	ld	a5,-24(s0)
    8000143e:	5ffc                	lw	a5,124(a5)
    80001440:	c789                	beqz	a5,8000144a <pop_off+0x74>
    80001442:	00000097          	auipc	ra,0x0
    80001446:	d8e080e7          	jalr	-626(ra) # 800011d0 <intr_on>
    8000144a:	0001                	nop
    8000144c:	60e2                	ld	ra,24(sp)
    8000144e:	6442                	ld	s0,16(sp)
    80001450:	6105                	addi	sp,sp,32
    80001452:	8082                	ret

0000000080001454 <memset>:
    80001454:	7179                	addi	sp,sp,-48
    80001456:	f422                	sd	s0,40(sp)
    80001458:	1800                	addi	s0,sp,48
    8000145a:	fca43c23          	sd	a0,-40(s0)
    8000145e:	87ae                	mv	a5,a1
    80001460:	8732                	mv	a4,a2
    80001462:	fcf42a23          	sw	a5,-44(s0)
    80001466:	87ba                	mv	a5,a4
    80001468:	fcf42823          	sw	a5,-48(s0)
    8000146c:	fd843783          	ld	a5,-40(s0)
    80001470:	fef43023          	sd	a5,-32(s0)
    80001474:	fe042623          	sw	zero,-20(s0)
    80001478:	a00d                	j	8000149a <memset+0x46>
    8000147a:	fec42783          	lw	a5,-20(s0)
    8000147e:	fe043703          	ld	a4,-32(s0)
    80001482:	97ba                	add	a5,a5,a4
    80001484:	fd442703          	lw	a4,-44(s0)
    80001488:	0ff77713          	andi	a4,a4,255
    8000148c:	00e78023          	sb	a4,0(a5)
    80001490:	fec42783          	lw	a5,-20(s0)
    80001494:	2785                	addiw	a5,a5,1
    80001496:	fef42623          	sw	a5,-20(s0)
    8000149a:	fec42703          	lw	a4,-20(s0)
    8000149e:	fd042783          	lw	a5,-48(s0)
    800014a2:	2781                	sext.w	a5,a5
    800014a4:	fcf76be3          	bltu	a4,a5,8000147a <memset+0x26>
    800014a8:	fd843783          	ld	a5,-40(s0)
    800014ac:	853e                	mv	a0,a5
    800014ae:	7422                	ld	s0,40(sp)
    800014b0:	6145                	addi	sp,sp,48
    800014b2:	8082                	ret

00000000800014b4 <memcmp>:
    800014b4:	7139                	addi	sp,sp,-64
    800014b6:	fc22                	sd	s0,56(sp)
    800014b8:	0080                	addi	s0,sp,64
    800014ba:	fca43c23          	sd	a0,-40(s0)
    800014be:	fcb43823          	sd	a1,-48(s0)
    800014c2:	87b2                	mv	a5,a2
    800014c4:	fcf42623          	sw	a5,-52(s0)
    800014c8:	fd843783          	ld	a5,-40(s0)
    800014cc:	fef43423          	sd	a5,-24(s0)
    800014d0:	fd043783          	ld	a5,-48(s0)
    800014d4:	fef43023          	sd	a5,-32(s0)
    800014d8:	a0a1                	j	80001520 <memcmp+0x6c>
    800014da:	fe843783          	ld	a5,-24(s0)
    800014de:	0007c703          	lbu	a4,0(a5)
    800014e2:	fe043783          	ld	a5,-32(s0)
    800014e6:	0007c783          	lbu	a5,0(a5)
    800014ea:	02f70163          	beq	a4,a5,8000150c <memcmp+0x58>
    800014ee:	fe843783          	ld	a5,-24(s0)
    800014f2:	0007c783          	lbu	a5,0(a5)
    800014f6:	0007871b          	sext.w	a4,a5
    800014fa:	fe043783          	ld	a5,-32(s0)
    800014fe:	0007c783          	lbu	a5,0(a5)
    80001502:	2781                	sext.w	a5,a5
    80001504:	40f707bb          	subw	a5,a4,a5
    80001508:	2781                	sext.w	a5,a5
    8000150a:	a01d                	j	80001530 <memcmp+0x7c>
    8000150c:	fe843783          	ld	a5,-24(s0)
    80001510:	0785                	addi	a5,a5,1
    80001512:	fef43423          	sd	a5,-24(s0)
    80001516:	fe043783          	ld	a5,-32(s0)
    8000151a:	0785                	addi	a5,a5,1
    8000151c:	fef43023          	sd	a5,-32(s0)
    80001520:	fcc42783          	lw	a5,-52(s0)
    80001524:	fff7871b          	addiw	a4,a5,-1
    80001528:	fce42623          	sw	a4,-52(s0)
    8000152c:	f7dd                	bnez	a5,800014da <memcmp+0x26>
    8000152e:	4781                	li	a5,0
    80001530:	853e                	mv	a0,a5
    80001532:	7462                	ld	s0,56(sp)
    80001534:	6121                	addi	sp,sp,64
    80001536:	8082                	ret

0000000080001538 <memmove>:
    80001538:	7139                	addi	sp,sp,-64
    8000153a:	fc22                	sd	s0,56(sp)
    8000153c:	0080                	addi	s0,sp,64
    8000153e:	fca43c23          	sd	a0,-40(s0)
    80001542:	fcb43823          	sd	a1,-48(s0)
    80001546:	87b2                	mv	a5,a2
    80001548:	fcf42623          	sw	a5,-52(s0)
    8000154c:	fd043783          	ld	a5,-48(s0)
    80001550:	fef43423          	sd	a5,-24(s0)
    80001554:	fd843783          	ld	a5,-40(s0)
    80001558:	fef43023          	sd	a5,-32(s0)
    8000155c:	fe843703          	ld	a4,-24(s0)
    80001560:	fe043783          	ld	a5,-32(s0)
    80001564:	08f77463          	bgeu	a4,a5,800015ec <memmove+0xb4>
    80001568:	fcc46783          	lwu	a5,-52(s0)
    8000156c:	fe843703          	ld	a4,-24(s0)
    80001570:	97ba                	add	a5,a5,a4
    80001572:	fe043703          	ld	a4,-32(s0)
    80001576:	06f77b63          	bgeu	a4,a5,800015ec <memmove+0xb4>
    8000157a:	fcc46783          	lwu	a5,-52(s0)
    8000157e:	fe843703          	ld	a4,-24(s0)
    80001582:	97ba                	add	a5,a5,a4
    80001584:	fef43423          	sd	a5,-24(s0)
    80001588:	fcc46783          	lwu	a5,-52(s0)
    8000158c:	fe043703          	ld	a4,-32(s0)
    80001590:	97ba                	add	a5,a5,a4
    80001592:	fef43023          	sd	a5,-32(s0)
    80001596:	a01d                	j	800015bc <memmove+0x84>
    80001598:	fe843783          	ld	a5,-24(s0)
    8000159c:	17fd                	addi	a5,a5,-1
    8000159e:	fef43423          	sd	a5,-24(s0)
    800015a2:	fe043783          	ld	a5,-32(s0)
    800015a6:	17fd                	addi	a5,a5,-1
    800015a8:	fef43023          	sd	a5,-32(s0)
    800015ac:	fe843783          	ld	a5,-24(s0)
    800015b0:	0007c703          	lbu	a4,0(a5)
    800015b4:	fe043783          	ld	a5,-32(s0)
    800015b8:	00e78023          	sb	a4,0(a5)
    800015bc:	fcc42783          	lw	a5,-52(s0)
    800015c0:	fff7871b          	addiw	a4,a5,-1
    800015c4:	fce42623          	sw	a4,-52(s0)
    800015c8:	fbe1                	bnez	a5,80001598 <memmove+0x60>
    800015ca:	a805                	j	800015fa <memmove+0xc2>
    800015cc:	fe843703          	ld	a4,-24(s0)
    800015d0:	00170793          	addi	a5,a4,1
    800015d4:	fef43423          	sd	a5,-24(s0)
    800015d8:	fe043783          	ld	a5,-32(s0)
    800015dc:	00178693          	addi	a3,a5,1
    800015e0:	fed43023          	sd	a3,-32(s0)
    800015e4:	00074703          	lbu	a4,0(a4)
    800015e8:	00e78023          	sb	a4,0(a5)
    800015ec:	fcc42783          	lw	a5,-52(s0)
    800015f0:	fff7871b          	addiw	a4,a5,-1
    800015f4:	fce42623          	sw	a4,-52(s0)
    800015f8:	fbf1                	bnez	a5,800015cc <memmove+0x94>
    800015fa:	fd843783          	ld	a5,-40(s0)
    800015fe:	853e                	mv	a0,a5
    80001600:	7462                	ld	s0,56(sp)
    80001602:	6121                	addi	sp,sp,64
    80001604:	8082                	ret

0000000080001606 <memcpy>:
    80001606:	7179                	addi	sp,sp,-48
    80001608:	f406                	sd	ra,40(sp)
    8000160a:	f022                	sd	s0,32(sp)
    8000160c:	1800                	addi	s0,sp,48
    8000160e:	fea43423          	sd	a0,-24(s0)
    80001612:	feb43023          	sd	a1,-32(s0)
    80001616:	87b2                	mv	a5,a2
    80001618:	fcf42e23          	sw	a5,-36(s0)
    8000161c:	fdc42783          	lw	a5,-36(s0)
    80001620:	863e                	mv	a2,a5
    80001622:	fe043583          	ld	a1,-32(s0)
    80001626:	fe843503          	ld	a0,-24(s0)
    8000162a:	00000097          	auipc	ra,0x0
    8000162e:	f0e080e7          	jalr	-242(ra) # 80001538 <memmove>
    80001632:	87aa                	mv	a5,a0
    80001634:	853e                	mv	a0,a5
    80001636:	70a2                	ld	ra,40(sp)
    80001638:	7402                	ld	s0,32(sp)
    8000163a:	6145                	addi	sp,sp,48
    8000163c:	8082                	ret

000000008000163e <strncmp>:
    8000163e:	7179                	addi	sp,sp,-48
    80001640:	f422                	sd	s0,40(sp)
    80001642:	1800                	addi	s0,sp,48
    80001644:	fea43423          	sd	a0,-24(s0)
    80001648:	feb43023          	sd	a1,-32(s0)
    8000164c:	87b2                	mv	a5,a2
    8000164e:	fcf42e23          	sw	a5,-36(s0)
    80001652:	a005                	j	80001672 <strncmp+0x34>
    80001654:	fdc42783          	lw	a5,-36(s0)
    80001658:	37fd                	addiw	a5,a5,-1
    8000165a:	fcf42e23          	sw	a5,-36(s0)
    8000165e:	fe843783          	ld	a5,-24(s0)
    80001662:	0785                	addi	a5,a5,1
    80001664:	fef43423          	sd	a5,-24(s0)
    80001668:	fe043783          	ld	a5,-32(s0)
    8000166c:	0785                	addi	a5,a5,1
    8000166e:	fef43023          	sd	a5,-32(s0)
    80001672:	fdc42783          	lw	a5,-36(s0)
    80001676:	2781                	sext.w	a5,a5
    80001678:	c385                	beqz	a5,80001698 <strncmp+0x5a>
    8000167a:	fe843783          	ld	a5,-24(s0)
    8000167e:	0007c783          	lbu	a5,0(a5)
    80001682:	cb99                	beqz	a5,80001698 <strncmp+0x5a>
    80001684:	fe843783          	ld	a5,-24(s0)
    80001688:	0007c703          	lbu	a4,0(a5)
    8000168c:	fe043783          	ld	a5,-32(s0)
    80001690:	0007c783          	lbu	a5,0(a5)
    80001694:	fcf700e3          	beq	a4,a5,80001654 <strncmp+0x16>
    80001698:	fdc42783          	lw	a5,-36(s0)
    8000169c:	2781                	sext.w	a5,a5
    8000169e:	e399                	bnez	a5,800016a4 <strncmp+0x66>
    800016a0:	4781                	li	a5,0
    800016a2:	a839                	j	800016c0 <strncmp+0x82>
    800016a4:	fe843783          	ld	a5,-24(s0)
    800016a8:	0007c783          	lbu	a5,0(a5)
    800016ac:	0007871b          	sext.w	a4,a5
    800016b0:	fe043783          	ld	a5,-32(s0)
    800016b4:	0007c783          	lbu	a5,0(a5)
    800016b8:	2781                	sext.w	a5,a5
    800016ba:	40f707bb          	subw	a5,a4,a5
    800016be:	2781                	sext.w	a5,a5
    800016c0:	853e                	mv	a0,a5
    800016c2:	7422                	ld	s0,40(sp)
    800016c4:	6145                	addi	sp,sp,48
    800016c6:	8082                	ret

00000000800016c8 <strncpy>:
    800016c8:	7139                	addi	sp,sp,-64
    800016ca:	fc22                	sd	s0,56(sp)
    800016cc:	0080                	addi	s0,sp,64
    800016ce:	fca43c23          	sd	a0,-40(s0)
    800016d2:	fcb43823          	sd	a1,-48(s0)
    800016d6:	87b2                	mv	a5,a2
    800016d8:	fcf42623          	sw	a5,-52(s0)
    800016dc:	fd843783          	ld	a5,-40(s0)
    800016e0:	fef43423          	sd	a5,-24(s0)
    800016e4:	0001                	nop
    800016e6:	fcc42783          	lw	a5,-52(s0)
    800016ea:	fff7871b          	addiw	a4,a5,-1
    800016ee:	fce42623          	sw	a4,-52(s0)
    800016f2:	02f05e63          	blez	a5,8000172e <strncpy+0x66>
    800016f6:	fd043703          	ld	a4,-48(s0)
    800016fa:	00170793          	addi	a5,a4,1
    800016fe:	fcf43823          	sd	a5,-48(s0)
    80001702:	fd843783          	ld	a5,-40(s0)
    80001706:	00178693          	addi	a3,a5,1
    8000170a:	fcd43c23          	sd	a3,-40(s0)
    8000170e:	00074703          	lbu	a4,0(a4)
    80001712:	00e78023          	sb	a4,0(a5)
    80001716:	0007c783          	lbu	a5,0(a5)
    8000171a:	f7f1                	bnez	a5,800016e6 <strncpy+0x1e>
    8000171c:	a809                	j	8000172e <strncpy+0x66>
    8000171e:	fd843783          	ld	a5,-40(s0)
    80001722:	00178713          	addi	a4,a5,1
    80001726:	fce43c23          	sd	a4,-40(s0)
    8000172a:	00078023          	sb	zero,0(a5)
    8000172e:	fcc42783          	lw	a5,-52(s0)
    80001732:	fff7871b          	addiw	a4,a5,-1
    80001736:	fce42623          	sw	a4,-52(s0)
    8000173a:	fef042e3          	bgtz	a5,8000171e <strncpy+0x56>
    8000173e:	fe843783          	ld	a5,-24(s0)
    80001742:	853e                	mv	a0,a5
    80001744:	7462                	ld	s0,56(sp)
    80001746:	6121                	addi	sp,sp,64
    80001748:	8082                	ret

000000008000174a <safestrcpy>:
    8000174a:	7139                	addi	sp,sp,-64
    8000174c:	fc22                	sd	s0,56(sp)
    8000174e:	0080                	addi	s0,sp,64
    80001750:	fca43c23          	sd	a0,-40(s0)
    80001754:	fcb43823          	sd	a1,-48(s0)
    80001758:	87b2                	mv	a5,a2
    8000175a:	fcf42623          	sw	a5,-52(s0)
    8000175e:	fd843783          	ld	a5,-40(s0)
    80001762:	fef43423          	sd	a5,-24(s0)
    80001766:	fcc42783          	lw	a5,-52(s0)
    8000176a:	2781                	sext.w	a5,a5
    8000176c:	00f04563          	bgtz	a5,80001776 <safestrcpy+0x2c>
    80001770:	fe843783          	ld	a5,-24(s0)
    80001774:	a0a1                	j	800017bc <safestrcpy+0x72>
    80001776:	fcc42783          	lw	a5,-52(s0)
    8000177a:	37fd                	addiw	a5,a5,-1
    8000177c:	fcf42623          	sw	a5,-52(s0)
    80001780:	fcc42783          	lw	a5,-52(s0)
    80001784:	2781                	sext.w	a5,a5
    80001786:	02f05563          	blez	a5,800017b0 <safestrcpy+0x66>
    8000178a:	fd043703          	ld	a4,-48(s0)
    8000178e:	00170793          	addi	a5,a4,1
    80001792:	fcf43823          	sd	a5,-48(s0)
    80001796:	fd843783          	ld	a5,-40(s0)
    8000179a:	00178693          	addi	a3,a5,1
    8000179e:	fcd43c23          	sd	a3,-40(s0)
    800017a2:	00074703          	lbu	a4,0(a4)
    800017a6:	00e78023          	sb	a4,0(a5)
    800017aa:	0007c783          	lbu	a5,0(a5)
    800017ae:	f7e1                	bnez	a5,80001776 <safestrcpy+0x2c>
    800017b0:	fd843783          	ld	a5,-40(s0)
    800017b4:	00078023          	sb	zero,0(a5)
    800017b8:	fe843783          	ld	a5,-24(s0)
    800017bc:	853e                	mv	a0,a5
    800017be:	7462                	ld	s0,56(sp)
    800017c0:	6121                	addi	sp,sp,64
    800017c2:	8082                	ret

00000000800017c4 <strlen>:
    800017c4:	7179                	addi	sp,sp,-48
    800017c6:	f422                	sd	s0,40(sp)
    800017c8:	1800                	addi	s0,sp,48
    800017ca:	fca43c23          	sd	a0,-40(s0)
    800017ce:	fe042623          	sw	zero,-20(s0)
    800017d2:	a031                	j	800017de <strlen+0x1a>
    800017d4:	fec42783          	lw	a5,-20(s0)
    800017d8:	2785                	addiw	a5,a5,1
    800017da:	fef42623          	sw	a5,-20(s0)
    800017de:	fec42783          	lw	a5,-20(s0)
    800017e2:	fd843703          	ld	a4,-40(s0)
    800017e6:	97ba                	add	a5,a5,a4
    800017e8:	0007c783          	lbu	a5,0(a5)
    800017ec:	f7e5                	bnez	a5,800017d4 <strlen+0x10>
    800017ee:	fec42783          	lw	a5,-20(s0)
    800017f2:	853e                	mv	a0,a5
    800017f4:	7422                	ld	s0,40(sp)
    800017f6:	6145                	addi	sp,sp,48
    800017f8:	8082                	ret

00000000800017fa <main>:
    800017fa:	1141                	addi	sp,sp,-16
    800017fc:	e406                	sd	ra,8(sp)
    800017fe:	e022                	sd	s0,0(sp)
    80001800:	0800                	addi	s0,sp,16
    80001802:	00001097          	auipc	ra,0x1
    80001806:	f8a080e7          	jalr	-118(ra) # 8000278c <cpuid>
    8000180a:	87aa                	mv	a5,a0
    8000180c:	efd5                	bnez	a5,800018c8 <main+0xce>
    8000180e:	fffff097          	auipc	ra,0xfffff
    80001812:	018080e7          	jalr	24(ra) # 80000826 <consoleinit>
    80001816:	fffff097          	auipc	ra,0xfffff
    8000181a:	48e080e7          	jalr	1166(ra) # 80000ca4 <printfinit>
    8000181e:	0000a517          	auipc	a0,0xa
    80001822:	86250513          	addi	a0,a0,-1950 # 8000b080 <etext+0x80>
    80001826:	fffff097          	auipc	ra,0xfffff
    8000182a:	1d6080e7          	jalr	470(ra) # 800009fc <printf>
    8000182e:	0000a517          	auipc	a0,0xa
    80001832:	85a50513          	addi	a0,a0,-1958 # 8000b088 <etext+0x88>
    80001836:	fffff097          	auipc	ra,0xfffff
    8000183a:	1c6080e7          	jalr	454(ra) # 800009fc <printf>
    8000183e:	0000a517          	auipc	a0,0xa
    80001842:	84250513          	addi	a0,a0,-1982 # 8000b080 <etext+0x80>
    80001846:	fffff097          	auipc	ra,0xfffff
    8000184a:	1b6080e7          	jalr	438(ra) # 800009fc <printf>
    8000184e:	fffff097          	auipc	ra,0xfffff
    80001852:	7a2080e7          	jalr	1954(ra) # 80000ff0 <kinit>
    80001856:	00000097          	auipc	ra,0x0
    8000185a:	1f4080e7          	jalr	500(ra) # 80001a4a <kvminit>
    8000185e:	00000097          	auipc	ra,0x0
    80001862:	212080e7          	jalr	530(ra) # 80001a70 <kvminithart>
    80001866:	00001097          	auipc	ra,0x1
    8000186a:	e78080e7          	jalr	-392(ra) # 800026de <procinit>
    8000186e:	00002097          	auipc	ra,0x2
    80001872:	132080e7          	jalr	306(ra) # 800039a0 <trapinit>
    80001876:	00002097          	auipc	ra,0x2
    8000187a:	154080e7          	jalr	340(ra) # 800039ca <trapinithart>
    8000187e:	00007097          	auipc	ra,0x7
    80001882:	f8c080e7          	jalr	-116(ra) # 8000880a <plicinit>
    80001886:	00007097          	auipc	ra,0x7
    8000188a:	fa8080e7          	jalr	-88(ra) # 8000882e <plicinithart>
    8000188e:	00003097          	auipc	ra,0x3
    80001892:	b64080e7          	jalr	-1180(ra) # 800043f2 <binit>
    80001896:	00003097          	auipc	ra,0x3
    8000189a:	3b0080e7          	jalr	944(ra) # 80004c46 <iinit>
    8000189e:	00005097          	auipc	ra,0x5
    800018a2:	d60080e7          	jalr	-672(ra) # 800065fe <fileinit>
    800018a6:	00007097          	auipc	ra,0x7
    800018aa:	05c080e7          	jalr	92(ra) # 80008902 <virtio_disk_init>
    800018ae:	00001097          	auipc	ra,0x1
    800018b2:	2a8080e7          	jalr	680(ra) # 80002b56 <userinit>
    800018b6:	0ff0000f          	fence
    800018ba:	00013797          	auipc	a5,0x13
    800018be:	9d678793          	addi	a5,a5,-1578 # 80014290 <started>
    800018c2:	4705                	li	a4,1
    800018c4:	c398                	sw	a4,0(a5)
    800018c6:	a0a9                	j	80001910 <main+0x116>
    800018c8:	0001                	nop
    800018ca:	00013797          	auipc	a5,0x13
    800018ce:	9c678793          	addi	a5,a5,-1594 # 80014290 <started>
    800018d2:	439c                	lw	a5,0(a5)
    800018d4:	2781                	sext.w	a5,a5
    800018d6:	dbf5                	beqz	a5,800018ca <main+0xd0>
    800018d8:	0ff0000f          	fence
    800018dc:	00001097          	auipc	ra,0x1
    800018e0:	eb0080e7          	jalr	-336(ra) # 8000278c <cpuid>
    800018e4:	87aa                	mv	a5,a0
    800018e6:	85be                	mv	a1,a5
    800018e8:	00009517          	auipc	a0,0x9
    800018ec:	7b850513          	addi	a0,a0,1976 # 8000b0a0 <etext+0xa0>
    800018f0:	fffff097          	auipc	ra,0xfffff
    800018f4:	10c080e7          	jalr	268(ra) # 800009fc <printf>
    800018f8:	00000097          	auipc	ra,0x0
    800018fc:	178080e7          	jalr	376(ra) # 80001a70 <kvminithart>
    80001900:	00002097          	auipc	ra,0x2
    80001904:	0ca080e7          	jalr	202(ra) # 800039ca <trapinithart>
    80001908:	00007097          	auipc	ra,0x7
    8000190c:	f26080e7          	jalr	-218(ra) # 8000882e <plicinithart>
    80001910:	00002097          	auipc	ra,0x2
    80001914:	882080e7          	jalr	-1918(ra) # 80003192 <scheduler>

0000000080001918 <w_satp>:
    80001918:	1101                	addi	sp,sp,-32
    8000191a:	ec22                	sd	s0,24(sp)
    8000191c:	1000                	addi	s0,sp,32
    8000191e:	fea43423          	sd	a0,-24(s0)
    80001922:	fe843783          	ld	a5,-24(s0)
    80001926:	18079073          	csrw	satp,a5
    8000192a:	0001                	nop
    8000192c:	6462                	ld	s0,24(sp)
    8000192e:	6105                	addi	sp,sp,32
    80001930:	8082                	ret

0000000080001932 <sfence_vma>:
    80001932:	1141                	addi	sp,sp,-16
    80001934:	e422                	sd	s0,8(sp)
    80001936:	0800                	addi	s0,sp,16
    80001938:	12000073          	sfence.vma
    8000193c:	0001                	nop
    8000193e:	6422                	ld	s0,8(sp)
    80001940:	0141                	addi	sp,sp,16
    80001942:	8082                	ret

0000000080001944 <kvmmake>:
    80001944:	1101                	addi	sp,sp,-32
    80001946:	ec06                	sd	ra,24(sp)
    80001948:	e822                	sd	s0,16(sp)
    8000194a:	1000                	addi	s0,sp,32
    8000194c:	fffff097          	auipc	ra,0xfffff
    80001950:	7e0080e7          	jalr	2016(ra) # 8000112c <kalloc>
    80001954:	fea43423          	sd	a0,-24(s0)
    80001958:	6605                	lui	a2,0x1
    8000195a:	4581                	li	a1,0
    8000195c:	fe843503          	ld	a0,-24(s0)
    80001960:	00000097          	auipc	ra,0x0
    80001964:	af4080e7          	jalr	-1292(ra) # 80001454 <memset>
    80001968:	4719                	li	a4,6
    8000196a:	6685                	lui	a3,0x1
    8000196c:	10000637          	lui	a2,0x10000
    80001970:	100005b7          	lui	a1,0x10000
    80001974:	fe843503          	ld	a0,-24(s0)
    80001978:	00000097          	auipc	ra,0x0
    8000197c:	298080e7          	jalr	664(ra) # 80001c10 <kvmmap>
    80001980:	4719                	li	a4,6
    80001982:	6685                	lui	a3,0x1
    80001984:	10001637          	lui	a2,0x10001
    80001988:	100015b7          	lui	a1,0x10001
    8000198c:	fe843503          	ld	a0,-24(s0)
    80001990:	00000097          	auipc	ra,0x0
    80001994:	280080e7          	jalr	640(ra) # 80001c10 <kvmmap>
    80001998:	4719                	li	a4,6
    8000199a:	004006b7          	lui	a3,0x400
    8000199e:	0c000637          	lui	a2,0xc000
    800019a2:	0c0005b7          	lui	a1,0xc000
    800019a6:	fe843503          	ld	a0,-24(s0)
    800019aa:	00000097          	auipc	ra,0x0
    800019ae:	266080e7          	jalr	614(ra) # 80001c10 <kvmmap>
    800019b2:	00009717          	auipc	a4,0x9
    800019b6:	64e70713          	addi	a4,a4,1614 # 8000b000 <etext>
    800019ba:	800007b7          	lui	a5,0x80000
    800019be:	97ba                	add	a5,a5,a4
    800019c0:	4729                	li	a4,10
    800019c2:	86be                	mv	a3,a5
    800019c4:	4785                	li	a5,1
    800019c6:	01f79613          	slli	a2,a5,0x1f
    800019ca:	4785                	li	a5,1
    800019cc:	01f79593          	slli	a1,a5,0x1f
    800019d0:	fe843503          	ld	a0,-24(s0)
    800019d4:	00000097          	auipc	ra,0x0
    800019d8:	23c080e7          	jalr	572(ra) # 80001c10 <kvmmap>
    800019dc:	00009597          	auipc	a1,0x9
    800019e0:	62458593          	addi	a1,a1,1572 # 8000b000 <etext>
    800019e4:	00009617          	auipc	a2,0x9
    800019e8:	61c60613          	addi	a2,a2,1564 # 8000b000 <etext>
    800019ec:	00009797          	auipc	a5,0x9
    800019f0:	61478793          	addi	a5,a5,1556 # 8000b000 <etext>
    800019f4:	4745                	li	a4,17
    800019f6:	076e                	slli	a4,a4,0x1b
    800019f8:	40f707b3          	sub	a5,a4,a5
    800019fc:	4719                	li	a4,6
    800019fe:	86be                	mv	a3,a5
    80001a00:	fe843503          	ld	a0,-24(s0)
    80001a04:	00000097          	auipc	ra,0x0
    80001a08:	20c080e7          	jalr	524(ra) # 80001c10 <kvmmap>
    80001a0c:	00008797          	auipc	a5,0x8
    80001a10:	5f478793          	addi	a5,a5,1524 # 8000a000 <_trampoline>
    80001a14:	4729                	li	a4,10
    80001a16:	6685                	lui	a3,0x1
    80001a18:	863e                	mv	a2,a5
    80001a1a:	040007b7          	lui	a5,0x4000
    80001a1e:	17fd                	addi	a5,a5,-1
    80001a20:	00c79593          	slli	a1,a5,0xc
    80001a24:	fe843503          	ld	a0,-24(s0)
    80001a28:	00000097          	auipc	ra,0x0
    80001a2c:	1e8080e7          	jalr	488(ra) # 80001c10 <kvmmap>
    80001a30:	fe843503          	ld	a0,-24(s0)
    80001a34:	00001097          	auipc	ra,0x1
    80001a38:	bee080e7          	jalr	-1042(ra) # 80002622 <proc_mapstacks>
    80001a3c:	fe843783          	ld	a5,-24(s0)
    80001a40:	853e                	mv	a0,a5
    80001a42:	60e2                	ld	ra,24(sp)
    80001a44:	6442                	ld	s0,16(sp)
    80001a46:	6105                	addi	sp,sp,32
    80001a48:	8082                	ret

0000000080001a4a <kvminit>:
    80001a4a:	1141                	addi	sp,sp,-16
    80001a4c:	e406                	sd	ra,8(sp)
    80001a4e:	e022                	sd	s0,0(sp)
    80001a50:	0800                	addi	s0,sp,16
    80001a52:	00000097          	auipc	ra,0x0
    80001a56:	ef2080e7          	jalr	-270(ra) # 80001944 <kvmmake>
    80001a5a:	872a                	mv	a4,a0
    80001a5c:	0000a797          	auipc	a5,0xa
    80001a60:	5b478793          	addi	a5,a5,1460 # 8000c010 <kernel_pagetable>
    80001a64:	e398                	sd	a4,0(a5)
    80001a66:	0001                	nop
    80001a68:	60a2                	ld	ra,8(sp)
    80001a6a:	6402                	ld	s0,0(sp)
    80001a6c:	0141                	addi	sp,sp,16
    80001a6e:	8082                	ret

0000000080001a70 <kvminithart>:
    80001a70:	1141                	addi	sp,sp,-16
    80001a72:	e406                	sd	ra,8(sp)
    80001a74:	e022                	sd	s0,0(sp)
    80001a76:	0800                	addi	s0,sp,16
    80001a78:	0000a797          	auipc	a5,0xa
    80001a7c:	59878793          	addi	a5,a5,1432 # 8000c010 <kernel_pagetable>
    80001a80:	639c                	ld	a5,0(a5)
    80001a82:	00c7d713          	srli	a4,a5,0xc
    80001a86:	57fd                	li	a5,-1
    80001a88:	17fe                	slli	a5,a5,0x3f
    80001a8a:	8fd9                	or	a5,a5,a4
    80001a8c:	853e                	mv	a0,a5
    80001a8e:	00000097          	auipc	ra,0x0
    80001a92:	e8a080e7          	jalr	-374(ra) # 80001918 <w_satp>
    80001a96:	00000097          	auipc	ra,0x0
    80001a9a:	e9c080e7          	jalr	-356(ra) # 80001932 <sfence_vma>
    80001a9e:	0001                	nop
    80001aa0:	60a2                	ld	ra,8(sp)
    80001aa2:	6402                	ld	s0,0(sp)
    80001aa4:	0141                	addi	sp,sp,16
    80001aa6:	8082                	ret

0000000080001aa8 <walk>:
    80001aa8:	7139                	addi	sp,sp,-64
    80001aaa:	fc06                	sd	ra,56(sp)
    80001aac:	f822                	sd	s0,48(sp)
    80001aae:	0080                	addi	s0,sp,64
    80001ab0:	fca43c23          	sd	a0,-40(s0)
    80001ab4:	fcb43823          	sd	a1,-48(s0)
    80001ab8:	87b2                	mv	a5,a2
    80001aba:	fcf42623          	sw	a5,-52(s0)
    80001abe:	fd043703          	ld	a4,-48(s0)
    80001ac2:	57fd                	li	a5,-1
    80001ac4:	83e9                	srli	a5,a5,0x1a
    80001ac6:	00e7fa63          	bgeu	a5,a4,80001ada <walk+0x32>
    80001aca:	00009517          	auipc	a0,0x9
    80001ace:	5ee50513          	addi	a0,a0,1518 # 8000b0b8 <etext+0xb8>
    80001ad2:	fffff097          	auipc	ra,0xfffff
    80001ad6:	180080e7          	jalr	384(ra) # 80000c52 <panic>
    80001ada:	4789                	li	a5,2
    80001adc:	fef42623          	sw	a5,-20(s0)
    80001ae0:	a849                	j	80001b72 <walk+0xca>
    80001ae2:	fec42703          	lw	a4,-20(s0)
    80001ae6:	87ba                	mv	a5,a4
    80001ae8:	0037979b          	slliw	a5,a5,0x3
    80001aec:	9fb9                	addw	a5,a5,a4
    80001aee:	2781                	sext.w	a5,a5
    80001af0:	27b1                	addiw	a5,a5,12
    80001af2:	2781                	sext.w	a5,a5
    80001af4:	873e                	mv	a4,a5
    80001af6:	fd043783          	ld	a5,-48(s0)
    80001afa:	00e7d7b3          	srl	a5,a5,a4
    80001afe:	1ff7f793          	andi	a5,a5,511
    80001b02:	078e                	slli	a5,a5,0x3
    80001b04:	fd843703          	ld	a4,-40(s0)
    80001b08:	97ba                	add	a5,a5,a4
    80001b0a:	fef43023          	sd	a5,-32(s0)
    80001b0e:	fe043783          	ld	a5,-32(s0)
    80001b12:	639c                	ld	a5,0(a5)
    80001b14:	8b85                	andi	a5,a5,1
    80001b16:	cb89                	beqz	a5,80001b28 <walk+0x80>
    80001b18:	fe043783          	ld	a5,-32(s0)
    80001b1c:	639c                	ld	a5,0(a5)
    80001b1e:	83a9                	srli	a5,a5,0xa
    80001b20:	07b2                	slli	a5,a5,0xc
    80001b22:	fcf43c23          	sd	a5,-40(s0)
    80001b26:	a089                	j	80001b68 <walk+0xc0>
    80001b28:	fcc42783          	lw	a5,-52(s0)
    80001b2c:	2781                	sext.w	a5,a5
    80001b2e:	cb91                	beqz	a5,80001b42 <walk+0x9a>
    80001b30:	fffff097          	auipc	ra,0xfffff
    80001b34:	5fc080e7          	jalr	1532(ra) # 8000112c <kalloc>
    80001b38:	fca43c23          	sd	a0,-40(s0)
    80001b3c:	fd843783          	ld	a5,-40(s0)
    80001b40:	e399                	bnez	a5,80001b46 <walk+0x9e>
    80001b42:	4781                	li	a5,0
    80001b44:	a0a9                	j	80001b8e <walk+0xe6>
    80001b46:	6605                	lui	a2,0x1
    80001b48:	4581                	li	a1,0
    80001b4a:	fd843503          	ld	a0,-40(s0)
    80001b4e:	00000097          	auipc	ra,0x0
    80001b52:	906080e7          	jalr	-1786(ra) # 80001454 <memset>
    80001b56:	fd843783          	ld	a5,-40(s0)
    80001b5a:	83b1                	srli	a5,a5,0xc
    80001b5c:	07aa                	slli	a5,a5,0xa
    80001b5e:	0017e713          	ori	a4,a5,1
    80001b62:	fe043783          	ld	a5,-32(s0)
    80001b66:	e398                	sd	a4,0(a5)
    80001b68:	fec42783          	lw	a5,-20(s0)
    80001b6c:	37fd                	addiw	a5,a5,-1
    80001b6e:	fef42623          	sw	a5,-20(s0)
    80001b72:	fec42783          	lw	a5,-20(s0)
    80001b76:	2781                	sext.w	a5,a5
    80001b78:	f6f045e3          	bgtz	a5,80001ae2 <walk+0x3a>
    80001b7c:	fd043783          	ld	a5,-48(s0)
    80001b80:	83b1                	srli	a5,a5,0xc
    80001b82:	1ff7f793          	andi	a5,a5,511
    80001b86:	078e                	slli	a5,a5,0x3
    80001b88:	fd843703          	ld	a4,-40(s0)
    80001b8c:	97ba                	add	a5,a5,a4
    80001b8e:	853e                	mv	a0,a5
    80001b90:	70e2                	ld	ra,56(sp)
    80001b92:	7442                	ld	s0,48(sp)
    80001b94:	6121                	addi	sp,sp,64
    80001b96:	8082                	ret

0000000080001b98 <walkaddr>:
    80001b98:	7179                	addi	sp,sp,-48
    80001b9a:	f406                	sd	ra,40(sp)
    80001b9c:	f022                	sd	s0,32(sp)
    80001b9e:	1800                	addi	s0,sp,48
    80001ba0:	fca43c23          	sd	a0,-40(s0)
    80001ba4:	fcb43823          	sd	a1,-48(s0)
    80001ba8:	fd043703          	ld	a4,-48(s0)
    80001bac:	57fd                	li	a5,-1
    80001bae:	83e9                	srli	a5,a5,0x1a
    80001bb0:	00e7f463          	bgeu	a5,a4,80001bb8 <walkaddr+0x20>
    80001bb4:	4781                	li	a5,0
    80001bb6:	a881                	j	80001c06 <walkaddr+0x6e>
    80001bb8:	4601                	li	a2,0
    80001bba:	fd043583          	ld	a1,-48(s0)
    80001bbe:	fd843503          	ld	a0,-40(s0)
    80001bc2:	00000097          	auipc	ra,0x0
    80001bc6:	ee6080e7          	jalr	-282(ra) # 80001aa8 <walk>
    80001bca:	fea43423          	sd	a0,-24(s0)
    80001bce:	fe843783          	ld	a5,-24(s0)
    80001bd2:	e399                	bnez	a5,80001bd8 <walkaddr+0x40>
    80001bd4:	4781                	li	a5,0
    80001bd6:	a805                	j	80001c06 <walkaddr+0x6e>
    80001bd8:	fe843783          	ld	a5,-24(s0)
    80001bdc:	639c                	ld	a5,0(a5)
    80001bde:	8b85                	andi	a5,a5,1
    80001be0:	e399                	bnez	a5,80001be6 <walkaddr+0x4e>
    80001be2:	4781                	li	a5,0
    80001be4:	a00d                	j	80001c06 <walkaddr+0x6e>
    80001be6:	fe843783          	ld	a5,-24(s0)
    80001bea:	639c                	ld	a5,0(a5)
    80001bec:	8bc1                	andi	a5,a5,16
    80001bee:	e399                	bnez	a5,80001bf4 <walkaddr+0x5c>
    80001bf0:	4781                	li	a5,0
    80001bf2:	a811                	j	80001c06 <walkaddr+0x6e>
    80001bf4:	fe843783          	ld	a5,-24(s0)
    80001bf8:	639c                	ld	a5,0(a5)
    80001bfa:	83a9                	srli	a5,a5,0xa
    80001bfc:	07b2                	slli	a5,a5,0xc
    80001bfe:	fef43023          	sd	a5,-32(s0)
    80001c02:	fe043783          	ld	a5,-32(s0)
    80001c06:	853e                	mv	a0,a5
    80001c08:	70a2                	ld	ra,40(sp)
    80001c0a:	7402                	ld	s0,32(sp)
    80001c0c:	6145                	addi	sp,sp,48
    80001c0e:	8082                	ret

0000000080001c10 <kvmmap>:
    80001c10:	7139                	addi	sp,sp,-64
    80001c12:	fc06                	sd	ra,56(sp)
    80001c14:	f822                	sd	s0,48(sp)
    80001c16:	0080                	addi	s0,sp,64
    80001c18:	fea43423          	sd	a0,-24(s0)
    80001c1c:	feb43023          	sd	a1,-32(s0)
    80001c20:	fcc43c23          	sd	a2,-40(s0)
    80001c24:	fcd43823          	sd	a3,-48(s0)
    80001c28:	87ba                	mv	a5,a4
    80001c2a:	fcf42623          	sw	a5,-52(s0)
    80001c2e:	fcc42783          	lw	a5,-52(s0)
    80001c32:	873e                	mv	a4,a5
    80001c34:	fd843683          	ld	a3,-40(s0)
    80001c38:	fd043603          	ld	a2,-48(s0)
    80001c3c:	fe043583          	ld	a1,-32(s0)
    80001c40:	fe843503          	ld	a0,-24(s0)
    80001c44:	00000097          	auipc	ra,0x0
    80001c48:	026080e7          	jalr	38(ra) # 80001c6a <mappages>
    80001c4c:	87aa                	mv	a5,a0
    80001c4e:	cb89                	beqz	a5,80001c60 <kvmmap+0x50>
    80001c50:	00009517          	auipc	a0,0x9
    80001c54:	47050513          	addi	a0,a0,1136 # 8000b0c0 <etext+0xc0>
    80001c58:	fffff097          	auipc	ra,0xfffff
    80001c5c:	ffa080e7          	jalr	-6(ra) # 80000c52 <panic>
    80001c60:	0001                	nop
    80001c62:	70e2                	ld	ra,56(sp)
    80001c64:	7442                	ld	s0,48(sp)
    80001c66:	6121                	addi	sp,sp,64
    80001c68:	8082                	ret

0000000080001c6a <mappages>:
    80001c6a:	711d                	addi	sp,sp,-96
    80001c6c:	ec86                	sd	ra,88(sp)
    80001c6e:	e8a2                	sd	s0,80(sp)
    80001c70:	1080                	addi	s0,sp,96
    80001c72:	fca43423          	sd	a0,-56(s0)
    80001c76:	fcb43023          	sd	a1,-64(s0)
    80001c7a:	fac43c23          	sd	a2,-72(s0)
    80001c7e:	fad43823          	sd	a3,-80(s0)
    80001c82:	87ba                	mv	a5,a4
    80001c84:	faf42623          	sw	a5,-84(s0)
    80001c88:	fc043703          	ld	a4,-64(s0)
    80001c8c:	77fd                	lui	a5,0xfffff
    80001c8e:	8ff9                	and	a5,a5,a4
    80001c90:	fef43423          	sd	a5,-24(s0)
    80001c94:	fc043703          	ld	a4,-64(s0)
    80001c98:	fb843783          	ld	a5,-72(s0)
    80001c9c:	97ba                	add	a5,a5,a4
    80001c9e:	fff78713          	addi	a4,a5,-1 # ffffffffffffefff <end+0xffffffff7ffd5fff>
    80001ca2:	77fd                	lui	a5,0xfffff
    80001ca4:	8ff9                	and	a5,a5,a4
    80001ca6:	fef43023          	sd	a5,-32(s0)
    80001caa:	4605                	li	a2,1
    80001cac:	fe843583          	ld	a1,-24(s0)
    80001cb0:	fc843503          	ld	a0,-56(s0)
    80001cb4:	00000097          	auipc	ra,0x0
    80001cb8:	df4080e7          	jalr	-524(ra) # 80001aa8 <walk>
    80001cbc:	fca43c23          	sd	a0,-40(s0)
    80001cc0:	fd843783          	ld	a5,-40(s0)
    80001cc4:	e399                	bnez	a5,80001cca <mappages+0x60>
    80001cc6:	57fd                	li	a5,-1
    80001cc8:	a085                	j	80001d28 <mappages+0xbe>
    80001cca:	fd843783          	ld	a5,-40(s0)
    80001cce:	639c                	ld	a5,0(a5)
    80001cd0:	8b85                	andi	a5,a5,1
    80001cd2:	cb89                	beqz	a5,80001ce4 <mappages+0x7a>
    80001cd4:	00009517          	auipc	a0,0x9
    80001cd8:	3f450513          	addi	a0,a0,1012 # 8000b0c8 <etext+0xc8>
    80001cdc:	fffff097          	auipc	ra,0xfffff
    80001ce0:	f76080e7          	jalr	-138(ra) # 80000c52 <panic>
    80001ce4:	fb043783          	ld	a5,-80(s0)
    80001ce8:	83b1                	srli	a5,a5,0xc
    80001cea:	00a79713          	slli	a4,a5,0xa
    80001cee:	fac42783          	lw	a5,-84(s0)
    80001cf2:	8fd9                	or	a5,a5,a4
    80001cf4:	0017e713          	ori	a4,a5,1
    80001cf8:	fd843783          	ld	a5,-40(s0)
    80001cfc:	e398                	sd	a4,0(a5)
    80001cfe:	fe843703          	ld	a4,-24(s0)
    80001d02:	fe043783          	ld	a5,-32(s0)
    80001d06:	00f70f63          	beq	a4,a5,80001d24 <mappages+0xba>
    80001d0a:	fe843703          	ld	a4,-24(s0)
    80001d0e:	6785                	lui	a5,0x1
    80001d10:	97ba                	add	a5,a5,a4
    80001d12:	fef43423          	sd	a5,-24(s0)
    80001d16:	fb043703          	ld	a4,-80(s0)
    80001d1a:	6785                	lui	a5,0x1
    80001d1c:	97ba                	add	a5,a5,a4
    80001d1e:	faf43823          	sd	a5,-80(s0)
    80001d22:	b761                	j	80001caa <mappages+0x40>
    80001d24:	0001                	nop
    80001d26:	4781                	li	a5,0
    80001d28:	853e                	mv	a0,a5
    80001d2a:	60e6                	ld	ra,88(sp)
    80001d2c:	6446                	ld	s0,80(sp)
    80001d2e:	6125                	addi	sp,sp,96
    80001d30:	8082                	ret

0000000080001d32 <uvmunmap>:
    80001d32:	715d                	addi	sp,sp,-80
    80001d34:	e486                	sd	ra,72(sp)
    80001d36:	e0a2                	sd	s0,64(sp)
    80001d38:	0880                	addi	s0,sp,80
    80001d3a:	fca43423          	sd	a0,-56(s0)
    80001d3e:	fcb43023          	sd	a1,-64(s0)
    80001d42:	fac43c23          	sd	a2,-72(s0)
    80001d46:	87b6                	mv	a5,a3
    80001d48:	faf42a23          	sw	a5,-76(s0)
    80001d4c:	fc043703          	ld	a4,-64(s0)
    80001d50:	6785                	lui	a5,0x1
    80001d52:	17fd                	addi	a5,a5,-1
    80001d54:	8ff9                	and	a5,a5,a4
    80001d56:	cb89                	beqz	a5,80001d68 <uvmunmap+0x36>
    80001d58:	00009517          	auipc	a0,0x9
    80001d5c:	37850513          	addi	a0,a0,888 # 8000b0d0 <etext+0xd0>
    80001d60:	fffff097          	auipc	ra,0xfffff
    80001d64:	ef2080e7          	jalr	-270(ra) # 80000c52 <panic>
    80001d68:	fc043783          	ld	a5,-64(s0)
    80001d6c:	fef43423          	sd	a5,-24(s0)
    80001d70:	a045                	j	80001e10 <uvmunmap+0xde>
    80001d72:	4601                	li	a2,0
    80001d74:	fe843583          	ld	a1,-24(s0)
    80001d78:	fc843503          	ld	a0,-56(s0)
    80001d7c:	00000097          	auipc	ra,0x0
    80001d80:	d2c080e7          	jalr	-724(ra) # 80001aa8 <walk>
    80001d84:	fea43023          	sd	a0,-32(s0)
    80001d88:	fe043783          	ld	a5,-32(s0)
    80001d8c:	eb89                	bnez	a5,80001d9e <uvmunmap+0x6c>
    80001d8e:	00009517          	auipc	a0,0x9
    80001d92:	35a50513          	addi	a0,a0,858 # 8000b0e8 <etext+0xe8>
    80001d96:	fffff097          	auipc	ra,0xfffff
    80001d9a:	ebc080e7          	jalr	-324(ra) # 80000c52 <panic>
    80001d9e:	fe043783          	ld	a5,-32(s0)
    80001da2:	639c                	ld	a5,0(a5)
    80001da4:	8b85                	andi	a5,a5,1
    80001da6:	eb89                	bnez	a5,80001db8 <uvmunmap+0x86>
    80001da8:	00009517          	auipc	a0,0x9
    80001dac:	35050513          	addi	a0,a0,848 # 8000b0f8 <etext+0xf8>
    80001db0:	fffff097          	auipc	ra,0xfffff
    80001db4:	ea2080e7          	jalr	-350(ra) # 80000c52 <panic>
    80001db8:	fe043783          	ld	a5,-32(s0)
    80001dbc:	639c                	ld	a5,0(a5)
    80001dbe:	3ff7f713          	andi	a4,a5,1023
    80001dc2:	4785                	li	a5,1
    80001dc4:	00f71a63          	bne	a4,a5,80001dd8 <uvmunmap+0xa6>
    80001dc8:	00009517          	auipc	a0,0x9
    80001dcc:	34850513          	addi	a0,a0,840 # 8000b110 <etext+0x110>
    80001dd0:	fffff097          	auipc	ra,0xfffff
    80001dd4:	e82080e7          	jalr	-382(ra) # 80000c52 <panic>
    80001dd8:	fb442783          	lw	a5,-76(s0)
    80001ddc:	2781                	sext.w	a5,a5
    80001dde:	cf99                	beqz	a5,80001dfc <uvmunmap+0xca>
    80001de0:	fe043783          	ld	a5,-32(s0)
    80001de4:	639c                	ld	a5,0(a5)
    80001de6:	83a9                	srli	a5,a5,0xa
    80001de8:	07b2                	slli	a5,a5,0xc
    80001dea:	fcf43c23          	sd	a5,-40(s0)
    80001dee:	fd843783          	ld	a5,-40(s0)
    80001df2:	853e                	mv	a0,a5
    80001df4:	fffff097          	auipc	ra,0xfffff
    80001df8:	294080e7          	jalr	660(ra) # 80001088 <kfree>
    80001dfc:	fe043783          	ld	a5,-32(s0)
    80001e00:	0007b023          	sd	zero,0(a5) # 1000 <_entry-0x7ffff000>
    80001e04:	fe843703          	ld	a4,-24(s0)
    80001e08:	6785                	lui	a5,0x1
    80001e0a:	97ba                	add	a5,a5,a4
    80001e0c:	fef43423          	sd	a5,-24(s0)
    80001e10:	fb843783          	ld	a5,-72(s0)
    80001e14:	00c79713          	slli	a4,a5,0xc
    80001e18:	fc043783          	ld	a5,-64(s0)
    80001e1c:	97ba                	add	a5,a5,a4
    80001e1e:	fe843703          	ld	a4,-24(s0)
    80001e22:	f4f768e3          	bltu	a4,a5,80001d72 <uvmunmap+0x40>
    80001e26:	0001                	nop
    80001e28:	0001                	nop
    80001e2a:	60a6                	ld	ra,72(sp)
    80001e2c:	6406                	ld	s0,64(sp)
    80001e2e:	6161                	addi	sp,sp,80
    80001e30:	8082                	ret

0000000080001e32 <uvmcreate>:
    80001e32:	1101                	addi	sp,sp,-32
    80001e34:	ec06                	sd	ra,24(sp)
    80001e36:	e822                	sd	s0,16(sp)
    80001e38:	1000                	addi	s0,sp,32
    80001e3a:	fffff097          	auipc	ra,0xfffff
    80001e3e:	2f2080e7          	jalr	754(ra) # 8000112c <kalloc>
    80001e42:	fea43423          	sd	a0,-24(s0)
    80001e46:	fe843783          	ld	a5,-24(s0)
    80001e4a:	e399                	bnez	a5,80001e50 <uvmcreate+0x1e>
    80001e4c:	4781                	li	a5,0
    80001e4e:	a819                	j	80001e64 <uvmcreate+0x32>
    80001e50:	6605                	lui	a2,0x1
    80001e52:	4581                	li	a1,0
    80001e54:	fe843503          	ld	a0,-24(s0)
    80001e58:	fffff097          	auipc	ra,0xfffff
    80001e5c:	5fc080e7          	jalr	1532(ra) # 80001454 <memset>
    80001e60:	fe843783          	ld	a5,-24(s0)
    80001e64:	853e                	mv	a0,a5
    80001e66:	60e2                	ld	ra,24(sp)
    80001e68:	6442                	ld	s0,16(sp)
    80001e6a:	6105                	addi	sp,sp,32
    80001e6c:	8082                	ret

0000000080001e6e <uvminit>:
    80001e6e:	7139                	addi	sp,sp,-64
    80001e70:	fc06                	sd	ra,56(sp)
    80001e72:	f822                	sd	s0,48(sp)
    80001e74:	0080                	addi	s0,sp,64
    80001e76:	fca43c23          	sd	a0,-40(s0)
    80001e7a:	fcb43823          	sd	a1,-48(s0)
    80001e7e:	87b2                	mv	a5,a2
    80001e80:	fcf42623          	sw	a5,-52(s0)
    80001e84:	fcc42783          	lw	a5,-52(s0)
    80001e88:	0007871b          	sext.w	a4,a5
    80001e8c:	6785                	lui	a5,0x1
    80001e8e:	00f76a63          	bltu	a4,a5,80001ea2 <uvminit+0x34>
    80001e92:	00009517          	auipc	a0,0x9
    80001e96:	29650513          	addi	a0,a0,662 # 8000b128 <etext+0x128>
    80001e9a:	fffff097          	auipc	ra,0xfffff
    80001e9e:	db8080e7          	jalr	-584(ra) # 80000c52 <panic>
    80001ea2:	fffff097          	auipc	ra,0xfffff
    80001ea6:	28a080e7          	jalr	650(ra) # 8000112c <kalloc>
    80001eaa:	fea43423          	sd	a0,-24(s0)
    80001eae:	6605                	lui	a2,0x1
    80001eb0:	4581                	li	a1,0
    80001eb2:	fe843503          	ld	a0,-24(s0)
    80001eb6:	fffff097          	auipc	ra,0xfffff
    80001eba:	59e080e7          	jalr	1438(ra) # 80001454 <memset>
    80001ebe:	fe843783          	ld	a5,-24(s0)
    80001ec2:	4779                	li	a4,30
    80001ec4:	86be                	mv	a3,a5
    80001ec6:	6605                	lui	a2,0x1
    80001ec8:	4581                	li	a1,0
    80001eca:	fd843503          	ld	a0,-40(s0)
    80001ece:	00000097          	auipc	ra,0x0
    80001ed2:	d9c080e7          	jalr	-612(ra) # 80001c6a <mappages>
    80001ed6:	fcc42783          	lw	a5,-52(s0)
    80001eda:	863e                	mv	a2,a5
    80001edc:	fd043583          	ld	a1,-48(s0)
    80001ee0:	fe843503          	ld	a0,-24(s0)
    80001ee4:	fffff097          	auipc	ra,0xfffff
    80001ee8:	654080e7          	jalr	1620(ra) # 80001538 <memmove>
    80001eec:	0001                	nop
    80001eee:	70e2                	ld	ra,56(sp)
    80001ef0:	7442                	ld	s0,48(sp)
    80001ef2:	6121                	addi	sp,sp,64
    80001ef4:	8082                	ret

0000000080001ef6 <uvmalloc>:
    80001ef6:	7139                	addi	sp,sp,-64
    80001ef8:	fc06                	sd	ra,56(sp)
    80001efa:	f822                	sd	s0,48(sp)
    80001efc:	0080                	addi	s0,sp,64
    80001efe:	fca43c23          	sd	a0,-40(s0)
    80001f02:	fcb43823          	sd	a1,-48(s0)
    80001f06:	fcc43423          	sd	a2,-56(s0)
    80001f0a:	fc843703          	ld	a4,-56(s0)
    80001f0e:	fd043783          	ld	a5,-48(s0)
    80001f12:	00f77563          	bgeu	a4,a5,80001f1c <uvmalloc+0x26>
    80001f16:	fd043783          	ld	a5,-48(s0)
    80001f1a:	a85d                	j	80001fd0 <uvmalloc+0xda>
    80001f1c:	fd043703          	ld	a4,-48(s0)
    80001f20:	6785                	lui	a5,0x1
    80001f22:	17fd                	addi	a5,a5,-1
    80001f24:	973e                	add	a4,a4,a5
    80001f26:	77fd                	lui	a5,0xfffff
    80001f28:	8ff9                	and	a5,a5,a4
    80001f2a:	fcf43823          	sd	a5,-48(s0)
    80001f2e:	fd043783          	ld	a5,-48(s0)
    80001f32:	fef43423          	sd	a5,-24(s0)
    80001f36:	a069                	j	80001fc0 <uvmalloc+0xca>
    80001f38:	fffff097          	auipc	ra,0xfffff
    80001f3c:	1f4080e7          	jalr	500(ra) # 8000112c <kalloc>
    80001f40:	fea43023          	sd	a0,-32(s0)
    80001f44:	fe043783          	ld	a5,-32(s0)
    80001f48:	ef89                	bnez	a5,80001f62 <uvmalloc+0x6c>
    80001f4a:	fd043603          	ld	a2,-48(s0)
    80001f4e:	fe843583          	ld	a1,-24(s0)
    80001f52:	fd843503          	ld	a0,-40(s0)
    80001f56:	00000097          	auipc	ra,0x0
    80001f5a:	084080e7          	jalr	132(ra) # 80001fda <uvmdealloc>
    80001f5e:	4781                	li	a5,0
    80001f60:	a885                	j	80001fd0 <uvmalloc+0xda>
    80001f62:	6605                	lui	a2,0x1
    80001f64:	4581                	li	a1,0
    80001f66:	fe043503          	ld	a0,-32(s0)
    80001f6a:	fffff097          	auipc	ra,0xfffff
    80001f6e:	4ea080e7          	jalr	1258(ra) # 80001454 <memset>
    80001f72:	fe043783          	ld	a5,-32(s0)
    80001f76:	4779                	li	a4,30
    80001f78:	86be                	mv	a3,a5
    80001f7a:	6605                	lui	a2,0x1
    80001f7c:	fe843583          	ld	a1,-24(s0)
    80001f80:	fd843503          	ld	a0,-40(s0)
    80001f84:	00000097          	auipc	ra,0x0
    80001f88:	ce6080e7          	jalr	-794(ra) # 80001c6a <mappages>
    80001f8c:	87aa                	mv	a5,a0
    80001f8e:	c39d                	beqz	a5,80001fb4 <uvmalloc+0xbe>
    80001f90:	fe043503          	ld	a0,-32(s0)
    80001f94:	fffff097          	auipc	ra,0xfffff
    80001f98:	0f4080e7          	jalr	244(ra) # 80001088 <kfree>
    80001f9c:	fd043603          	ld	a2,-48(s0)
    80001fa0:	fe843583          	ld	a1,-24(s0)
    80001fa4:	fd843503          	ld	a0,-40(s0)
    80001fa8:	00000097          	auipc	ra,0x0
    80001fac:	032080e7          	jalr	50(ra) # 80001fda <uvmdealloc>
    80001fb0:	4781                	li	a5,0
    80001fb2:	a839                	j	80001fd0 <uvmalloc+0xda>
    80001fb4:	fe843703          	ld	a4,-24(s0)
    80001fb8:	6785                	lui	a5,0x1
    80001fba:	97ba                	add	a5,a5,a4
    80001fbc:	fef43423          	sd	a5,-24(s0)
    80001fc0:	fe843703          	ld	a4,-24(s0)
    80001fc4:	fc843783          	ld	a5,-56(s0)
    80001fc8:	f6f768e3          	bltu	a4,a5,80001f38 <uvmalloc+0x42>
    80001fcc:	fc843783          	ld	a5,-56(s0)
    80001fd0:	853e                	mv	a0,a5
    80001fd2:	70e2                	ld	ra,56(sp)
    80001fd4:	7442                	ld	s0,48(sp)
    80001fd6:	6121                	addi	sp,sp,64
    80001fd8:	8082                	ret

0000000080001fda <uvmdealloc>:
    80001fda:	7139                	addi	sp,sp,-64
    80001fdc:	fc06                	sd	ra,56(sp)
    80001fde:	f822                	sd	s0,48(sp)
    80001fe0:	0080                	addi	s0,sp,64
    80001fe2:	fca43c23          	sd	a0,-40(s0)
    80001fe6:	fcb43823          	sd	a1,-48(s0)
    80001fea:	fcc43423          	sd	a2,-56(s0)
    80001fee:	fc843703          	ld	a4,-56(s0)
    80001ff2:	fd043783          	ld	a5,-48(s0)
    80001ff6:	00f76563          	bltu	a4,a5,80002000 <uvmdealloc+0x26>
    80001ffa:	fd043783          	ld	a5,-48(s0)
    80001ffe:	a885                	j	8000206e <uvmdealloc+0x94>
    80002000:	fc843703          	ld	a4,-56(s0)
    80002004:	6785                	lui	a5,0x1
    80002006:	17fd                	addi	a5,a5,-1
    80002008:	973e                	add	a4,a4,a5
    8000200a:	77fd                	lui	a5,0xfffff
    8000200c:	8f7d                	and	a4,a4,a5
    8000200e:	fd043683          	ld	a3,-48(s0)
    80002012:	6785                	lui	a5,0x1
    80002014:	17fd                	addi	a5,a5,-1
    80002016:	96be                	add	a3,a3,a5
    80002018:	77fd                	lui	a5,0xfffff
    8000201a:	8ff5                	and	a5,a5,a3
    8000201c:	04f77763          	bgeu	a4,a5,8000206a <uvmdealloc+0x90>
    80002020:	fd043703          	ld	a4,-48(s0)
    80002024:	6785                	lui	a5,0x1
    80002026:	17fd                	addi	a5,a5,-1
    80002028:	973e                	add	a4,a4,a5
    8000202a:	77fd                	lui	a5,0xfffff
    8000202c:	8f7d                	and	a4,a4,a5
    8000202e:	fc843683          	ld	a3,-56(s0)
    80002032:	6785                	lui	a5,0x1
    80002034:	17fd                	addi	a5,a5,-1
    80002036:	96be                	add	a3,a3,a5
    80002038:	77fd                	lui	a5,0xfffff
    8000203a:	8ff5                	and	a5,a5,a3
    8000203c:	40f707b3          	sub	a5,a4,a5
    80002040:	83b1                	srli	a5,a5,0xc
    80002042:	fef42623          	sw	a5,-20(s0)
    80002046:	fc843703          	ld	a4,-56(s0)
    8000204a:	6785                	lui	a5,0x1
    8000204c:	17fd                	addi	a5,a5,-1
    8000204e:	973e                	add	a4,a4,a5
    80002050:	77fd                	lui	a5,0xfffff
    80002052:	8ff9                	and	a5,a5,a4
    80002054:	fec42703          	lw	a4,-20(s0)
    80002058:	4685                	li	a3,1
    8000205a:	863a                	mv	a2,a4
    8000205c:	85be                	mv	a1,a5
    8000205e:	fd843503          	ld	a0,-40(s0)
    80002062:	00000097          	auipc	ra,0x0
    80002066:	cd0080e7          	jalr	-816(ra) # 80001d32 <uvmunmap>
    8000206a:	fc843783          	ld	a5,-56(s0)
    8000206e:	853e                	mv	a0,a5
    80002070:	70e2                	ld	ra,56(sp)
    80002072:	7442                	ld	s0,48(sp)
    80002074:	6121                	addi	sp,sp,64
    80002076:	8082                	ret

0000000080002078 <freewalk>:
    80002078:	7139                	addi	sp,sp,-64
    8000207a:	fc06                	sd	ra,56(sp)
    8000207c:	f822                	sd	s0,48(sp)
    8000207e:	0080                	addi	s0,sp,64
    80002080:	fca43423          	sd	a0,-56(s0)
    80002084:	fe042623          	sw	zero,-20(s0)
    80002088:	a88d                	j	800020fa <freewalk+0x82>
    8000208a:	fec42783          	lw	a5,-20(s0)
    8000208e:	078e                	slli	a5,a5,0x3
    80002090:	fc843703          	ld	a4,-56(s0)
    80002094:	97ba                	add	a5,a5,a4
    80002096:	639c                	ld	a5,0(a5)
    80002098:	fef43023          	sd	a5,-32(s0)
    8000209c:	fe043783          	ld	a5,-32(s0)
    800020a0:	8b85                	andi	a5,a5,1
    800020a2:	cb9d                	beqz	a5,800020d8 <freewalk+0x60>
    800020a4:	fe043783          	ld	a5,-32(s0)
    800020a8:	8bb9                	andi	a5,a5,14
    800020aa:	e79d                	bnez	a5,800020d8 <freewalk+0x60>
    800020ac:	fe043783          	ld	a5,-32(s0)
    800020b0:	83a9                	srli	a5,a5,0xa
    800020b2:	07b2                	slli	a5,a5,0xc
    800020b4:	fcf43c23          	sd	a5,-40(s0)
    800020b8:	fd843783          	ld	a5,-40(s0)
    800020bc:	853e                	mv	a0,a5
    800020be:	00000097          	auipc	ra,0x0
    800020c2:	fba080e7          	jalr	-70(ra) # 80002078 <freewalk>
    800020c6:	fec42783          	lw	a5,-20(s0)
    800020ca:	078e                	slli	a5,a5,0x3
    800020cc:	fc843703          	ld	a4,-56(s0)
    800020d0:	97ba                	add	a5,a5,a4
    800020d2:	0007b023          	sd	zero,0(a5) # fffffffffffff000 <end+0xffffffff7ffd6000>
    800020d6:	a829                	j	800020f0 <freewalk+0x78>
    800020d8:	fe043783          	ld	a5,-32(s0)
    800020dc:	8b85                	andi	a5,a5,1
    800020de:	cb89                	beqz	a5,800020f0 <freewalk+0x78>
    800020e0:	00009517          	auipc	a0,0x9
    800020e4:	06850513          	addi	a0,a0,104 # 8000b148 <etext+0x148>
    800020e8:	fffff097          	auipc	ra,0xfffff
    800020ec:	b6a080e7          	jalr	-1174(ra) # 80000c52 <panic>
    800020f0:	fec42783          	lw	a5,-20(s0)
    800020f4:	2785                	addiw	a5,a5,1
    800020f6:	fef42623          	sw	a5,-20(s0)
    800020fa:	fec42783          	lw	a5,-20(s0)
    800020fe:	0007871b          	sext.w	a4,a5
    80002102:	1ff00793          	li	a5,511
    80002106:	f8e7d2e3          	bge	a5,a4,8000208a <freewalk+0x12>
    8000210a:	fc843503          	ld	a0,-56(s0)
    8000210e:	fffff097          	auipc	ra,0xfffff
    80002112:	f7a080e7          	jalr	-134(ra) # 80001088 <kfree>
    80002116:	0001                	nop
    80002118:	70e2                	ld	ra,56(sp)
    8000211a:	7442                	ld	s0,48(sp)
    8000211c:	6121                	addi	sp,sp,64
    8000211e:	8082                	ret

0000000080002120 <uvmfree>:
    80002120:	1101                	addi	sp,sp,-32
    80002122:	ec06                	sd	ra,24(sp)
    80002124:	e822                	sd	s0,16(sp)
    80002126:	1000                	addi	s0,sp,32
    80002128:	fea43423          	sd	a0,-24(s0)
    8000212c:	feb43023          	sd	a1,-32(s0)
    80002130:	fe043783          	ld	a5,-32(s0)
    80002134:	c385                	beqz	a5,80002154 <uvmfree+0x34>
    80002136:	fe043703          	ld	a4,-32(s0)
    8000213a:	6785                	lui	a5,0x1
    8000213c:	17fd                	addi	a5,a5,-1
    8000213e:	97ba                	add	a5,a5,a4
    80002140:	83b1                	srli	a5,a5,0xc
    80002142:	4685                	li	a3,1
    80002144:	863e                	mv	a2,a5
    80002146:	4581                	li	a1,0
    80002148:	fe843503          	ld	a0,-24(s0)
    8000214c:	00000097          	auipc	ra,0x0
    80002150:	be6080e7          	jalr	-1050(ra) # 80001d32 <uvmunmap>
    80002154:	fe843503          	ld	a0,-24(s0)
    80002158:	00000097          	auipc	ra,0x0
    8000215c:	f20080e7          	jalr	-224(ra) # 80002078 <freewalk>
    80002160:	0001                	nop
    80002162:	60e2                	ld	ra,24(sp)
    80002164:	6442                	ld	s0,16(sp)
    80002166:	6105                	addi	sp,sp,32
    80002168:	8082                	ret

000000008000216a <uvmcopy>:
    8000216a:	711d                	addi	sp,sp,-96
    8000216c:	ec86                	sd	ra,88(sp)
    8000216e:	e8a2                	sd	s0,80(sp)
    80002170:	1080                	addi	s0,sp,96
    80002172:	faa43c23          	sd	a0,-72(s0)
    80002176:	fab43823          	sd	a1,-80(s0)
    8000217a:	fac43423          	sd	a2,-88(s0)
    8000217e:	fe043423          	sd	zero,-24(s0)
    80002182:	a0d9                	j	80002248 <uvmcopy+0xde>
    80002184:	4601                	li	a2,0
    80002186:	fe843583          	ld	a1,-24(s0)
    8000218a:	fb843503          	ld	a0,-72(s0)
    8000218e:	00000097          	auipc	ra,0x0
    80002192:	91a080e7          	jalr	-1766(ra) # 80001aa8 <walk>
    80002196:	fea43023          	sd	a0,-32(s0)
    8000219a:	fe043783          	ld	a5,-32(s0)
    8000219e:	eb89                	bnez	a5,800021b0 <uvmcopy+0x46>
    800021a0:	00009517          	auipc	a0,0x9
    800021a4:	fb850513          	addi	a0,a0,-72 # 8000b158 <etext+0x158>
    800021a8:	fffff097          	auipc	ra,0xfffff
    800021ac:	aaa080e7          	jalr	-1366(ra) # 80000c52 <panic>
    800021b0:	fe043783          	ld	a5,-32(s0)
    800021b4:	639c                	ld	a5,0(a5)
    800021b6:	8b85                	andi	a5,a5,1
    800021b8:	eb89                	bnez	a5,800021ca <uvmcopy+0x60>
    800021ba:	00009517          	auipc	a0,0x9
    800021be:	fbe50513          	addi	a0,a0,-66 # 8000b178 <etext+0x178>
    800021c2:	fffff097          	auipc	ra,0xfffff
    800021c6:	a90080e7          	jalr	-1392(ra) # 80000c52 <panic>
    800021ca:	fe043783          	ld	a5,-32(s0)
    800021ce:	639c                	ld	a5,0(a5)
    800021d0:	83a9                	srli	a5,a5,0xa
    800021d2:	07b2                	slli	a5,a5,0xc
    800021d4:	fcf43c23          	sd	a5,-40(s0)
    800021d8:	fe043783          	ld	a5,-32(s0)
    800021dc:	639c                	ld	a5,0(a5)
    800021de:	2781                	sext.w	a5,a5
    800021e0:	3ff7f793          	andi	a5,a5,1023
    800021e4:	fcf42a23          	sw	a5,-44(s0)
    800021e8:	fffff097          	auipc	ra,0xfffff
    800021ec:	f44080e7          	jalr	-188(ra) # 8000112c <kalloc>
    800021f0:	fca43423          	sd	a0,-56(s0)
    800021f4:	fc843783          	ld	a5,-56(s0)
    800021f8:	c3a5                	beqz	a5,80002258 <uvmcopy+0xee>
    800021fa:	fd843783          	ld	a5,-40(s0)
    800021fe:	6605                	lui	a2,0x1
    80002200:	85be                	mv	a1,a5
    80002202:	fc843503          	ld	a0,-56(s0)
    80002206:	fffff097          	auipc	ra,0xfffff
    8000220a:	332080e7          	jalr	818(ra) # 80001538 <memmove>
    8000220e:	fc843783          	ld	a5,-56(s0)
    80002212:	fd442703          	lw	a4,-44(s0)
    80002216:	86be                	mv	a3,a5
    80002218:	6605                	lui	a2,0x1
    8000221a:	fe843583          	ld	a1,-24(s0)
    8000221e:	fb043503          	ld	a0,-80(s0)
    80002222:	00000097          	auipc	ra,0x0
    80002226:	a48080e7          	jalr	-1464(ra) # 80001c6a <mappages>
    8000222a:	87aa                	mv	a5,a0
    8000222c:	cb81                	beqz	a5,8000223c <uvmcopy+0xd2>
    8000222e:	fc843503          	ld	a0,-56(s0)
    80002232:	fffff097          	auipc	ra,0xfffff
    80002236:	e56080e7          	jalr	-426(ra) # 80001088 <kfree>
    8000223a:	a005                	j	8000225a <uvmcopy+0xf0>
    8000223c:	fe843703          	ld	a4,-24(s0)
    80002240:	6785                	lui	a5,0x1
    80002242:	97ba                	add	a5,a5,a4
    80002244:	fef43423          	sd	a5,-24(s0)
    80002248:	fe843703          	ld	a4,-24(s0)
    8000224c:	fa843783          	ld	a5,-88(s0)
    80002250:	f2f76ae3          	bltu	a4,a5,80002184 <uvmcopy+0x1a>
    80002254:	4781                	li	a5,0
    80002256:	a839                	j	80002274 <uvmcopy+0x10a>
    80002258:	0001                	nop
    8000225a:	fe843783          	ld	a5,-24(s0)
    8000225e:	83b1                	srli	a5,a5,0xc
    80002260:	4685                	li	a3,1
    80002262:	863e                	mv	a2,a5
    80002264:	4581                	li	a1,0
    80002266:	fb043503          	ld	a0,-80(s0)
    8000226a:	00000097          	auipc	ra,0x0
    8000226e:	ac8080e7          	jalr	-1336(ra) # 80001d32 <uvmunmap>
    80002272:	57fd                	li	a5,-1
    80002274:	853e                	mv	a0,a5
    80002276:	60e6                	ld	ra,88(sp)
    80002278:	6446                	ld	s0,80(sp)
    8000227a:	6125                	addi	sp,sp,96
    8000227c:	8082                	ret

000000008000227e <uvmclear>:
    8000227e:	7179                	addi	sp,sp,-48
    80002280:	f406                	sd	ra,40(sp)
    80002282:	f022                	sd	s0,32(sp)
    80002284:	1800                	addi	s0,sp,48
    80002286:	fca43c23          	sd	a0,-40(s0)
    8000228a:	fcb43823          	sd	a1,-48(s0)
    8000228e:	4601                	li	a2,0
    80002290:	fd043583          	ld	a1,-48(s0)
    80002294:	fd843503          	ld	a0,-40(s0)
    80002298:	00000097          	auipc	ra,0x0
    8000229c:	810080e7          	jalr	-2032(ra) # 80001aa8 <walk>
    800022a0:	fea43423          	sd	a0,-24(s0)
    800022a4:	fe843783          	ld	a5,-24(s0)
    800022a8:	eb89                	bnez	a5,800022ba <uvmclear+0x3c>
    800022aa:	00009517          	auipc	a0,0x9
    800022ae:	eee50513          	addi	a0,a0,-274 # 8000b198 <etext+0x198>
    800022b2:	fffff097          	auipc	ra,0xfffff
    800022b6:	9a0080e7          	jalr	-1632(ra) # 80000c52 <panic>
    800022ba:	fe843783          	ld	a5,-24(s0)
    800022be:	639c                	ld	a5,0(a5)
    800022c0:	fef7f713          	andi	a4,a5,-17
    800022c4:	fe843783          	ld	a5,-24(s0)
    800022c8:	e398                	sd	a4,0(a5)
    800022ca:	0001                	nop
    800022cc:	70a2                	ld	ra,40(sp)
    800022ce:	7402                	ld	s0,32(sp)
    800022d0:	6145                	addi	sp,sp,48
    800022d2:	8082                	ret

00000000800022d4 <copyout>:
    800022d4:	715d                	addi	sp,sp,-80
    800022d6:	e486                	sd	ra,72(sp)
    800022d8:	e0a2                	sd	s0,64(sp)
    800022da:	0880                	addi	s0,sp,80
    800022dc:	fca43423          	sd	a0,-56(s0)
    800022e0:	fcb43023          	sd	a1,-64(s0)
    800022e4:	fac43c23          	sd	a2,-72(s0)
    800022e8:	fad43823          	sd	a3,-80(s0)
    800022ec:	a055                	j	80002390 <copyout+0xbc>
    800022ee:	fc043703          	ld	a4,-64(s0)
    800022f2:	77fd                	lui	a5,0xfffff
    800022f4:	8ff9                	and	a5,a5,a4
    800022f6:	fef43023          	sd	a5,-32(s0)
    800022fa:	fe043583          	ld	a1,-32(s0)
    800022fe:	fc843503          	ld	a0,-56(s0)
    80002302:	00000097          	auipc	ra,0x0
    80002306:	896080e7          	jalr	-1898(ra) # 80001b98 <walkaddr>
    8000230a:	fca43c23          	sd	a0,-40(s0)
    8000230e:	fd843783          	ld	a5,-40(s0)
    80002312:	e399                	bnez	a5,80002318 <copyout+0x44>
    80002314:	57fd                	li	a5,-1
    80002316:	a049                	j	80002398 <copyout+0xc4>
    80002318:	fe043703          	ld	a4,-32(s0)
    8000231c:	fc043783          	ld	a5,-64(s0)
    80002320:	8f1d                	sub	a4,a4,a5
    80002322:	6785                	lui	a5,0x1
    80002324:	97ba                	add	a5,a5,a4
    80002326:	fef43423          	sd	a5,-24(s0)
    8000232a:	fe843703          	ld	a4,-24(s0)
    8000232e:	fb043783          	ld	a5,-80(s0)
    80002332:	00e7f663          	bgeu	a5,a4,8000233e <copyout+0x6a>
    80002336:	fb043783          	ld	a5,-80(s0)
    8000233a:	fef43423          	sd	a5,-24(s0)
    8000233e:	fc043703          	ld	a4,-64(s0)
    80002342:	fe043783          	ld	a5,-32(s0)
    80002346:	8f1d                	sub	a4,a4,a5
    80002348:	fd843783          	ld	a5,-40(s0)
    8000234c:	97ba                	add	a5,a5,a4
    8000234e:	873e                	mv	a4,a5
    80002350:	fe843783          	ld	a5,-24(s0)
    80002354:	2781                	sext.w	a5,a5
    80002356:	863e                	mv	a2,a5
    80002358:	fb843583          	ld	a1,-72(s0)
    8000235c:	853a                	mv	a0,a4
    8000235e:	fffff097          	auipc	ra,0xfffff
    80002362:	1da080e7          	jalr	474(ra) # 80001538 <memmove>
    80002366:	fb043703          	ld	a4,-80(s0)
    8000236a:	fe843783          	ld	a5,-24(s0)
    8000236e:	40f707b3          	sub	a5,a4,a5
    80002372:	faf43823          	sd	a5,-80(s0)
    80002376:	fb843703          	ld	a4,-72(s0)
    8000237a:	fe843783          	ld	a5,-24(s0)
    8000237e:	97ba                	add	a5,a5,a4
    80002380:	faf43c23          	sd	a5,-72(s0)
    80002384:	fe043703          	ld	a4,-32(s0)
    80002388:	6785                	lui	a5,0x1
    8000238a:	97ba                	add	a5,a5,a4
    8000238c:	fcf43023          	sd	a5,-64(s0)
    80002390:	fb043783          	ld	a5,-80(s0)
    80002394:	ffa9                	bnez	a5,800022ee <copyout+0x1a>
    80002396:	4781                	li	a5,0
    80002398:	853e                	mv	a0,a5
    8000239a:	60a6                	ld	ra,72(sp)
    8000239c:	6406                	ld	s0,64(sp)
    8000239e:	6161                	addi	sp,sp,80
    800023a0:	8082                	ret

00000000800023a2 <copyin>:
    800023a2:	715d                	addi	sp,sp,-80
    800023a4:	e486                	sd	ra,72(sp)
    800023a6:	e0a2                	sd	s0,64(sp)
    800023a8:	0880                	addi	s0,sp,80
    800023aa:	fca43423          	sd	a0,-56(s0)
    800023ae:	fcb43023          	sd	a1,-64(s0)
    800023b2:	fac43c23          	sd	a2,-72(s0)
    800023b6:	fad43823          	sd	a3,-80(s0)
    800023ba:	a055                	j	8000245e <copyin+0xbc>
    800023bc:	fb843703          	ld	a4,-72(s0)
    800023c0:	77fd                	lui	a5,0xfffff
    800023c2:	8ff9                	and	a5,a5,a4
    800023c4:	fef43023          	sd	a5,-32(s0)
    800023c8:	fe043583          	ld	a1,-32(s0)
    800023cc:	fc843503          	ld	a0,-56(s0)
    800023d0:	fffff097          	auipc	ra,0xfffff
    800023d4:	7c8080e7          	jalr	1992(ra) # 80001b98 <walkaddr>
    800023d8:	fca43c23          	sd	a0,-40(s0)
    800023dc:	fd843783          	ld	a5,-40(s0)
    800023e0:	e399                	bnez	a5,800023e6 <copyin+0x44>
    800023e2:	57fd                	li	a5,-1
    800023e4:	a049                	j	80002466 <copyin+0xc4>
    800023e6:	fe043703          	ld	a4,-32(s0)
    800023ea:	fb843783          	ld	a5,-72(s0)
    800023ee:	8f1d                	sub	a4,a4,a5
    800023f0:	6785                	lui	a5,0x1
    800023f2:	97ba                	add	a5,a5,a4
    800023f4:	fef43423          	sd	a5,-24(s0)
    800023f8:	fe843703          	ld	a4,-24(s0)
    800023fc:	fb043783          	ld	a5,-80(s0)
    80002400:	00e7f663          	bgeu	a5,a4,8000240c <copyin+0x6a>
    80002404:	fb043783          	ld	a5,-80(s0)
    80002408:	fef43423          	sd	a5,-24(s0)
    8000240c:	fb843703          	ld	a4,-72(s0)
    80002410:	fe043783          	ld	a5,-32(s0)
    80002414:	8f1d                	sub	a4,a4,a5
    80002416:	fd843783          	ld	a5,-40(s0)
    8000241a:	97ba                	add	a5,a5,a4
    8000241c:	873e                	mv	a4,a5
    8000241e:	fe843783          	ld	a5,-24(s0)
    80002422:	2781                	sext.w	a5,a5
    80002424:	863e                	mv	a2,a5
    80002426:	85ba                	mv	a1,a4
    80002428:	fc043503          	ld	a0,-64(s0)
    8000242c:	fffff097          	auipc	ra,0xfffff
    80002430:	10c080e7          	jalr	268(ra) # 80001538 <memmove>
    80002434:	fb043703          	ld	a4,-80(s0)
    80002438:	fe843783          	ld	a5,-24(s0)
    8000243c:	40f707b3          	sub	a5,a4,a5
    80002440:	faf43823          	sd	a5,-80(s0)
    80002444:	fc043703          	ld	a4,-64(s0)
    80002448:	fe843783          	ld	a5,-24(s0)
    8000244c:	97ba                	add	a5,a5,a4
    8000244e:	fcf43023          	sd	a5,-64(s0)
    80002452:	fe043703          	ld	a4,-32(s0)
    80002456:	6785                	lui	a5,0x1
    80002458:	97ba                	add	a5,a5,a4
    8000245a:	faf43c23          	sd	a5,-72(s0)
    8000245e:	fb043783          	ld	a5,-80(s0)
    80002462:	ffa9                	bnez	a5,800023bc <copyin+0x1a>
    80002464:	4781                	li	a5,0
    80002466:	853e                	mv	a0,a5
    80002468:	60a6                	ld	ra,72(sp)
    8000246a:	6406                	ld	s0,64(sp)
    8000246c:	6161                	addi	sp,sp,80
    8000246e:	8082                	ret

0000000080002470 <copyinstr>:
    80002470:	711d                	addi	sp,sp,-96
    80002472:	ec86                	sd	ra,88(sp)
    80002474:	e8a2                	sd	s0,80(sp)
    80002476:	1080                	addi	s0,sp,96
    80002478:	faa43c23          	sd	a0,-72(s0)
    8000247c:	fab43823          	sd	a1,-80(s0)
    80002480:	fac43423          	sd	a2,-88(s0)
    80002484:	fad43023          	sd	a3,-96(s0)
    80002488:	fe042223          	sw	zero,-28(s0)
    8000248c:	a0f1                	j	80002558 <copyinstr+0xe8>
    8000248e:	fa843703          	ld	a4,-88(s0)
    80002492:	77fd                	lui	a5,0xfffff
    80002494:	8ff9                	and	a5,a5,a4
    80002496:	fcf43823          	sd	a5,-48(s0)
    8000249a:	fd043583          	ld	a1,-48(s0)
    8000249e:	fb843503          	ld	a0,-72(s0)
    800024a2:	fffff097          	auipc	ra,0xfffff
    800024a6:	6f6080e7          	jalr	1782(ra) # 80001b98 <walkaddr>
    800024aa:	fca43423          	sd	a0,-56(s0)
    800024ae:	fc843783          	ld	a5,-56(s0)
    800024b2:	e399                	bnez	a5,800024b8 <copyinstr+0x48>
    800024b4:	57fd                	li	a5,-1
    800024b6:	a87d                	j	80002574 <copyinstr+0x104>
    800024b8:	fd043703          	ld	a4,-48(s0)
    800024bc:	fa843783          	ld	a5,-88(s0)
    800024c0:	8f1d                	sub	a4,a4,a5
    800024c2:	6785                	lui	a5,0x1
    800024c4:	97ba                	add	a5,a5,a4
    800024c6:	fef43423          	sd	a5,-24(s0)
    800024ca:	fe843703          	ld	a4,-24(s0)
    800024ce:	fa043783          	ld	a5,-96(s0)
    800024d2:	00e7f663          	bgeu	a5,a4,800024de <copyinstr+0x6e>
    800024d6:	fa043783          	ld	a5,-96(s0)
    800024da:	fef43423          	sd	a5,-24(s0)
    800024de:	fa843703          	ld	a4,-88(s0)
    800024e2:	fd043783          	ld	a5,-48(s0)
    800024e6:	8f1d                	sub	a4,a4,a5
    800024e8:	fc843783          	ld	a5,-56(s0)
    800024ec:	97ba                	add	a5,a5,a4
    800024ee:	fcf43c23          	sd	a5,-40(s0)
    800024f2:	a891                	j	80002546 <copyinstr+0xd6>
    800024f4:	fd843783          	ld	a5,-40(s0)
    800024f8:	0007c783          	lbu	a5,0(a5) # 1000 <_entry-0x7ffff000>
    800024fc:	eb89                	bnez	a5,8000250e <copyinstr+0x9e>
    800024fe:	fb043783          	ld	a5,-80(s0)
    80002502:	00078023          	sb	zero,0(a5)
    80002506:	4785                	li	a5,1
    80002508:	fef42223          	sw	a5,-28(s0)
    8000250c:	a081                	j	8000254c <copyinstr+0xdc>
    8000250e:	fd843783          	ld	a5,-40(s0)
    80002512:	0007c703          	lbu	a4,0(a5)
    80002516:	fb043783          	ld	a5,-80(s0)
    8000251a:	00e78023          	sb	a4,0(a5)
    8000251e:	fe843783          	ld	a5,-24(s0)
    80002522:	17fd                	addi	a5,a5,-1
    80002524:	fef43423          	sd	a5,-24(s0)
    80002528:	fa043783          	ld	a5,-96(s0)
    8000252c:	17fd                	addi	a5,a5,-1
    8000252e:	faf43023          	sd	a5,-96(s0)
    80002532:	fd843783          	ld	a5,-40(s0)
    80002536:	0785                	addi	a5,a5,1
    80002538:	fcf43c23          	sd	a5,-40(s0)
    8000253c:	fb043783          	ld	a5,-80(s0)
    80002540:	0785                	addi	a5,a5,1
    80002542:	faf43823          	sd	a5,-80(s0)
    80002546:	fe843783          	ld	a5,-24(s0)
    8000254a:	f7cd                	bnez	a5,800024f4 <copyinstr+0x84>
    8000254c:	fd043703          	ld	a4,-48(s0)
    80002550:	6785                	lui	a5,0x1
    80002552:	97ba                	add	a5,a5,a4
    80002554:	faf43423          	sd	a5,-88(s0)
    80002558:	fe442783          	lw	a5,-28(s0)
    8000255c:	2781                	sext.w	a5,a5
    8000255e:	e781                	bnez	a5,80002566 <copyinstr+0xf6>
    80002560:	fa043783          	ld	a5,-96(s0)
    80002564:	f78d                	bnez	a5,8000248e <copyinstr+0x1e>
    80002566:	fe442783          	lw	a5,-28(s0)
    8000256a:	2781                	sext.w	a5,a5
    8000256c:	c399                	beqz	a5,80002572 <copyinstr+0x102>
    8000256e:	4781                	li	a5,0
    80002570:	a011                	j	80002574 <copyinstr+0x104>
    80002572:	57fd                	li	a5,-1
    80002574:	853e                	mv	a0,a5
    80002576:	60e6                	ld	ra,88(sp)
    80002578:	6446                	ld	s0,80(sp)
    8000257a:	6125                	addi	sp,sp,96
    8000257c:	8082                	ret

000000008000257e <r_sstatus>:
    8000257e:	1101                	addi	sp,sp,-32
    80002580:	ec22                	sd	s0,24(sp)
    80002582:	1000                	addi	s0,sp,32
    80002584:	100027f3          	csrr	a5,sstatus
    80002588:	fef43423          	sd	a5,-24(s0)
    8000258c:	fe843783          	ld	a5,-24(s0)
    80002590:	853e                	mv	a0,a5
    80002592:	6462                	ld	s0,24(sp)
    80002594:	6105                	addi	sp,sp,32
    80002596:	8082                	ret

0000000080002598 <w_sstatus>:
    80002598:	1101                	addi	sp,sp,-32
    8000259a:	ec22                	sd	s0,24(sp)
    8000259c:	1000                	addi	s0,sp,32
    8000259e:	fea43423          	sd	a0,-24(s0)
    800025a2:	fe843783          	ld	a5,-24(s0)
    800025a6:	10079073          	csrw	sstatus,a5
    800025aa:	0001                	nop
    800025ac:	6462                	ld	s0,24(sp)
    800025ae:	6105                	addi	sp,sp,32
    800025b0:	8082                	ret

00000000800025b2 <intr_on>:
    800025b2:	1141                	addi	sp,sp,-16
    800025b4:	e406                	sd	ra,8(sp)
    800025b6:	e022                	sd	s0,0(sp)
    800025b8:	0800                	addi	s0,sp,16
    800025ba:	00000097          	auipc	ra,0x0
    800025be:	fc4080e7          	jalr	-60(ra) # 8000257e <r_sstatus>
    800025c2:	87aa                	mv	a5,a0
    800025c4:	0027e793          	ori	a5,a5,2
    800025c8:	853e                	mv	a0,a5
    800025ca:	00000097          	auipc	ra,0x0
    800025ce:	fce080e7          	jalr	-50(ra) # 80002598 <w_sstatus>
    800025d2:	0001                	nop
    800025d4:	60a2                	ld	ra,8(sp)
    800025d6:	6402                	ld	s0,0(sp)
    800025d8:	0141                	addi	sp,sp,16
    800025da:	8082                	ret

00000000800025dc <intr_get>:
    800025dc:	1101                	addi	sp,sp,-32
    800025de:	ec06                	sd	ra,24(sp)
    800025e0:	e822                	sd	s0,16(sp)
    800025e2:	1000                	addi	s0,sp,32
    800025e4:	00000097          	auipc	ra,0x0
    800025e8:	f9a080e7          	jalr	-102(ra) # 8000257e <r_sstatus>
    800025ec:	fea43423          	sd	a0,-24(s0)
    800025f0:	fe843783          	ld	a5,-24(s0)
    800025f4:	8b89                	andi	a5,a5,2
    800025f6:	00f037b3          	snez	a5,a5
    800025fa:	0ff7f793          	andi	a5,a5,255
    800025fe:	2781                	sext.w	a5,a5
    80002600:	853e                	mv	a0,a5
    80002602:	60e2                	ld	ra,24(sp)
    80002604:	6442                	ld	s0,16(sp)
    80002606:	6105                	addi	sp,sp,32
    80002608:	8082                	ret

000000008000260a <r_tp>:
    8000260a:	1101                	addi	sp,sp,-32
    8000260c:	ec22                	sd	s0,24(sp)
    8000260e:	1000                	addi	s0,sp,32
    80002610:	8792                	mv	a5,tp
    80002612:	fef43423          	sd	a5,-24(s0)
    80002616:	fe843783          	ld	a5,-24(s0)
    8000261a:	853e                	mv	a0,a5
    8000261c:	6462                	ld	s0,24(sp)
    8000261e:	6105                	addi	sp,sp,32
    80002620:	8082                	ret

0000000080002622 <proc_mapstacks>:
    80002622:	7139                	addi	sp,sp,-64
    80002624:	fc06                	sd	ra,56(sp)
    80002626:	f822                	sd	s0,48(sp)
    80002628:	0080                	addi	s0,sp,64
    8000262a:	fca43423          	sd	a0,-56(s0)
    8000262e:	00012797          	auipc	a5,0x12
    80002632:	06a78793          	addi	a5,a5,106 # 80014698 <proc>
    80002636:	fef43423          	sd	a5,-24(s0)
    8000263a:	a061                	j	800026c2 <proc_mapstacks+0xa0>
    8000263c:	fffff097          	auipc	ra,0xfffff
    80002640:	af0080e7          	jalr	-1296(ra) # 8000112c <kalloc>
    80002644:	fea43023          	sd	a0,-32(s0)
    80002648:	fe043783          	ld	a5,-32(s0)
    8000264c:	eb89                	bnez	a5,8000265e <proc_mapstacks+0x3c>
    8000264e:	00009517          	auipc	a0,0x9
    80002652:	b5a50513          	addi	a0,a0,-1190 # 8000b1a8 <etext+0x1a8>
    80002656:	ffffe097          	auipc	ra,0xffffe
    8000265a:	5fc080e7          	jalr	1532(ra) # 80000c52 <panic>
    8000265e:	fe843703          	ld	a4,-24(s0)
    80002662:	00012797          	auipc	a5,0x12
    80002666:	03678793          	addi	a5,a5,54 # 80014698 <proc>
    8000266a:	40f707b3          	sub	a5,a4,a5
    8000266e:	4037d713          	srai	a4,a5,0x3
    80002672:	00009797          	auipc	a5,0x9
    80002676:	c1e78793          	addi	a5,a5,-994 # 8000b290 <etext+0x290>
    8000267a:	639c                	ld	a5,0(a5)
    8000267c:	02f707b3          	mul	a5,a4,a5
    80002680:	2781                	sext.w	a5,a5
    80002682:	2785                	addiw	a5,a5,1
    80002684:	2781                	sext.w	a5,a5
    80002686:	00d7979b          	slliw	a5,a5,0xd
    8000268a:	2781                	sext.w	a5,a5
    8000268c:	873e                	mv	a4,a5
    8000268e:	040007b7          	lui	a5,0x4000
    80002692:	17fd                	addi	a5,a5,-1
    80002694:	07b2                	slli	a5,a5,0xc
    80002696:	8f99                	sub	a5,a5,a4
    80002698:	fcf43c23          	sd	a5,-40(s0)
    8000269c:	fe043783          	ld	a5,-32(s0)
    800026a0:	4719                	li	a4,6
    800026a2:	6685                	lui	a3,0x1
    800026a4:	863e                	mv	a2,a5
    800026a6:	fd843583          	ld	a1,-40(s0)
    800026aa:	fc843503          	ld	a0,-56(s0)
    800026ae:	fffff097          	auipc	ra,0xfffff
    800026b2:	562080e7          	jalr	1378(ra) # 80001c10 <kvmmap>
    800026b6:	fe843783          	ld	a5,-24(s0)
    800026ba:	16878793          	addi	a5,a5,360 # 4000168 <_entry-0x7bfffe98>
    800026be:	fef43423          	sd	a5,-24(s0)
    800026c2:	fe843703          	ld	a4,-24(s0)
    800026c6:	00018797          	auipc	a5,0x18
    800026ca:	9d278793          	addi	a5,a5,-1582 # 8001a098 <pid_lock>
    800026ce:	f6f767e3          	bltu	a4,a5,8000263c <proc_mapstacks+0x1a>
    800026d2:	0001                	nop
    800026d4:	0001                	nop
    800026d6:	70e2                	ld	ra,56(sp)
    800026d8:	7442                	ld	s0,48(sp)
    800026da:	6121                	addi	sp,sp,64
    800026dc:	8082                	ret

00000000800026de <procinit>:
    800026de:	1101                	addi	sp,sp,-32
    800026e0:	ec06                	sd	ra,24(sp)
    800026e2:	e822                	sd	s0,16(sp)
    800026e4:	1000                	addi	s0,sp,32
    800026e6:	00009597          	auipc	a1,0x9
    800026ea:	aca58593          	addi	a1,a1,-1334 # 8000b1b0 <etext+0x1b0>
    800026ee:	00018517          	auipc	a0,0x18
    800026f2:	9aa50513          	addi	a0,a0,-1622 # 8001a098 <pid_lock>
    800026f6:	fffff097          	auipc	ra,0xfffff
    800026fa:	b5a080e7          	jalr	-1190(ra) # 80001250 <initlock>
    800026fe:	00012797          	auipc	a5,0x12
    80002702:	f9a78793          	addi	a5,a5,-102 # 80014698 <proc>
    80002706:	fef43423          	sd	a5,-24(s0)
    8000270a:	a09d                	j	80002770 <procinit+0x92>
    8000270c:	fe843783          	ld	a5,-24(s0)
    80002710:	00009597          	auipc	a1,0x9
    80002714:	aa858593          	addi	a1,a1,-1368 # 8000b1b8 <etext+0x1b8>
    80002718:	853e                	mv	a0,a5
    8000271a:	fffff097          	auipc	ra,0xfffff
    8000271e:	b36080e7          	jalr	-1226(ra) # 80001250 <initlock>
    80002722:	fe843703          	ld	a4,-24(s0)
    80002726:	00012797          	auipc	a5,0x12
    8000272a:	f7278793          	addi	a5,a5,-142 # 80014698 <proc>
    8000272e:	40f707b3          	sub	a5,a4,a5
    80002732:	4037d713          	srai	a4,a5,0x3
    80002736:	00009797          	auipc	a5,0x9
    8000273a:	b5a78793          	addi	a5,a5,-1190 # 8000b290 <etext+0x290>
    8000273e:	639c                	ld	a5,0(a5)
    80002740:	02f707b3          	mul	a5,a4,a5
    80002744:	2781                	sext.w	a5,a5
    80002746:	2785                	addiw	a5,a5,1
    80002748:	2781                	sext.w	a5,a5
    8000274a:	00d7979b          	slliw	a5,a5,0xd
    8000274e:	2781                	sext.w	a5,a5
    80002750:	873e                	mv	a4,a5
    80002752:	040007b7          	lui	a5,0x4000
    80002756:	17fd                	addi	a5,a5,-1
    80002758:	07b2                	slli	a5,a5,0xc
    8000275a:	8f99                	sub	a5,a5,a4
    8000275c:	873e                	mv	a4,a5
    8000275e:	fe843783          	ld	a5,-24(s0)
    80002762:	e3b8                	sd	a4,64(a5)
    80002764:	fe843783          	ld	a5,-24(s0)
    80002768:	16878793          	addi	a5,a5,360 # 4000168 <_entry-0x7bfffe98>
    8000276c:	fef43423          	sd	a5,-24(s0)
    80002770:	fe843703          	ld	a4,-24(s0)
    80002774:	00018797          	auipc	a5,0x18
    80002778:	92478793          	addi	a5,a5,-1756 # 8001a098 <pid_lock>
    8000277c:	f8f768e3          	bltu	a4,a5,8000270c <procinit+0x2e>
    80002780:	0001                	nop
    80002782:	0001                	nop
    80002784:	60e2                	ld	ra,24(sp)
    80002786:	6442                	ld	s0,16(sp)
    80002788:	6105                	addi	sp,sp,32
    8000278a:	8082                	ret

000000008000278c <cpuid>:
    8000278c:	1101                	addi	sp,sp,-32
    8000278e:	ec06                	sd	ra,24(sp)
    80002790:	e822                	sd	s0,16(sp)
    80002792:	1000                	addi	s0,sp,32
    80002794:	00000097          	auipc	ra,0x0
    80002798:	e76080e7          	jalr	-394(ra) # 8000260a <r_tp>
    8000279c:	87aa                	mv	a5,a0
    8000279e:	fef42623          	sw	a5,-20(s0)
    800027a2:	fec42783          	lw	a5,-20(s0)
    800027a6:	853e                	mv	a0,a5
    800027a8:	60e2                	ld	ra,24(sp)
    800027aa:	6442                	ld	s0,16(sp)
    800027ac:	6105                	addi	sp,sp,32
    800027ae:	8082                	ret

00000000800027b0 <mycpu>:
    800027b0:	1101                	addi	sp,sp,-32
    800027b2:	ec06                	sd	ra,24(sp)
    800027b4:	e822                	sd	s0,16(sp)
    800027b6:	1000                	addi	s0,sp,32
    800027b8:	00000097          	auipc	ra,0x0
    800027bc:	fd4080e7          	jalr	-44(ra) # 8000278c <cpuid>
    800027c0:	87aa                	mv	a5,a0
    800027c2:	fef42623          	sw	a5,-20(s0)
    800027c6:	fec42783          	lw	a5,-20(s0)
    800027ca:	00779713          	slli	a4,a5,0x7
    800027ce:	00012797          	auipc	a5,0x12
    800027d2:	aca78793          	addi	a5,a5,-1334 # 80014298 <cpus>
    800027d6:	97ba                	add	a5,a5,a4
    800027d8:	fef43023          	sd	a5,-32(s0)
    800027dc:	fe043783          	ld	a5,-32(s0)
    800027e0:	853e                	mv	a0,a5
    800027e2:	60e2                	ld	ra,24(sp)
    800027e4:	6442                	ld	s0,16(sp)
    800027e6:	6105                	addi	sp,sp,32
    800027e8:	8082                	ret

00000000800027ea <myproc>:
    800027ea:	1101                	addi	sp,sp,-32
    800027ec:	ec06                	sd	ra,24(sp)
    800027ee:	e822                	sd	s0,16(sp)
    800027f0:	1000                	addi	s0,sp,32
    800027f2:	fffff097          	auipc	ra,0xfffff
    800027f6:	b8c080e7          	jalr	-1140(ra) # 8000137e <push_off>
    800027fa:	00000097          	auipc	ra,0x0
    800027fe:	fb6080e7          	jalr	-74(ra) # 800027b0 <mycpu>
    80002802:	fea43423          	sd	a0,-24(s0)
    80002806:	fe843783          	ld	a5,-24(s0)
    8000280a:	639c                	ld	a5,0(a5)
    8000280c:	fef43023          	sd	a5,-32(s0)
    80002810:	fffff097          	auipc	ra,0xfffff
    80002814:	bc6080e7          	jalr	-1082(ra) # 800013d6 <pop_off>
    80002818:	fe043783          	ld	a5,-32(s0)
    8000281c:	853e                	mv	a0,a5
    8000281e:	60e2                	ld	ra,24(sp)
    80002820:	6442                	ld	s0,16(sp)
    80002822:	6105                	addi	sp,sp,32
    80002824:	8082                	ret

0000000080002826 <allocpid>:
    80002826:	1101                	addi	sp,sp,-32
    80002828:	ec06                	sd	ra,24(sp)
    8000282a:	e822                	sd	s0,16(sp)
    8000282c:	1000                	addi	s0,sp,32
    8000282e:	00018517          	auipc	a0,0x18
    80002832:	86a50513          	addi	a0,a0,-1942 # 8001a098 <pid_lock>
    80002836:	fffff097          	auipc	ra,0xfffff
    8000283a:	a4a080e7          	jalr	-1462(ra) # 80001280 <acquire>
    8000283e:	00009797          	auipc	a5,0x9
    80002842:	f1278793          	addi	a5,a5,-238 # 8000b750 <nextpid>
    80002846:	439c                	lw	a5,0(a5)
    80002848:	fef42623          	sw	a5,-20(s0)
    8000284c:	00009797          	auipc	a5,0x9
    80002850:	f0478793          	addi	a5,a5,-252 # 8000b750 <nextpid>
    80002854:	439c                	lw	a5,0(a5)
    80002856:	2785                	addiw	a5,a5,1
    80002858:	0007871b          	sext.w	a4,a5
    8000285c:	00009797          	auipc	a5,0x9
    80002860:	ef478793          	addi	a5,a5,-268 # 8000b750 <nextpid>
    80002864:	c398                	sw	a4,0(a5)
    80002866:	00018517          	auipc	a0,0x18
    8000286a:	83250513          	addi	a0,a0,-1998 # 8001a098 <pid_lock>
    8000286e:	fffff097          	auipc	ra,0xfffff
    80002872:	a76080e7          	jalr	-1418(ra) # 800012e4 <release>
    80002876:	fec42783          	lw	a5,-20(s0)
    8000287a:	853e                	mv	a0,a5
    8000287c:	60e2                	ld	ra,24(sp)
    8000287e:	6442                	ld	s0,16(sp)
    80002880:	6105                	addi	sp,sp,32
    80002882:	8082                	ret

0000000080002884 <allocproc>:
    80002884:	1101                	addi	sp,sp,-32
    80002886:	ec06                	sd	ra,24(sp)
    80002888:	e822                	sd	s0,16(sp)
    8000288a:	1000                	addi	s0,sp,32
    8000288c:	00012797          	auipc	a5,0x12
    80002890:	e0c78793          	addi	a5,a5,-500 # 80014698 <proc>
    80002894:	fef43423          	sd	a5,-24(s0)
    80002898:	a80d                	j	800028ca <allocproc+0x46>
    8000289a:	fe843783          	ld	a5,-24(s0)
    8000289e:	853e                	mv	a0,a5
    800028a0:	fffff097          	auipc	ra,0xfffff
    800028a4:	9e0080e7          	jalr	-1568(ra) # 80001280 <acquire>
    800028a8:	fe843783          	ld	a5,-24(s0)
    800028ac:	4f9c                	lw	a5,24(a5)
    800028ae:	cb85                	beqz	a5,800028de <allocproc+0x5a>
    800028b0:	fe843783          	ld	a5,-24(s0)
    800028b4:	853e                	mv	a0,a5
    800028b6:	fffff097          	auipc	ra,0xfffff
    800028ba:	a2e080e7          	jalr	-1490(ra) # 800012e4 <release>
    800028be:	fe843783          	ld	a5,-24(s0)
    800028c2:	16878793          	addi	a5,a5,360
    800028c6:	fef43423          	sd	a5,-24(s0)
    800028ca:	fe843703          	ld	a4,-24(s0)
    800028ce:	00017797          	auipc	a5,0x17
    800028d2:	7ca78793          	addi	a5,a5,1994 # 8001a098 <pid_lock>
    800028d6:	fcf762e3          	bltu	a4,a5,8000289a <allocproc+0x16>
    800028da:	4781                	li	a5,0
    800028dc:	a855                	j	80002990 <allocproc+0x10c>
    800028de:	0001                	nop
    800028e0:	00000097          	auipc	ra,0x0
    800028e4:	f46080e7          	jalr	-186(ra) # 80002826 <allocpid>
    800028e8:	87aa                	mv	a5,a0
    800028ea:	873e                	mv	a4,a5
    800028ec:	fe843783          	ld	a5,-24(s0)
    800028f0:	df98                	sw	a4,56(a5)
    800028f2:	fffff097          	auipc	ra,0xfffff
    800028f6:	83a080e7          	jalr	-1990(ra) # 8000112c <kalloc>
    800028fa:	872a                	mv	a4,a0
    800028fc:	fe843783          	ld	a5,-24(s0)
    80002900:	efb8                	sd	a4,88(a5)
    80002902:	fe843783          	ld	a5,-24(s0)
    80002906:	6fbc                	ld	a5,88(a5)
    80002908:	eb91                	bnez	a5,8000291c <allocproc+0x98>
    8000290a:	fe843783          	ld	a5,-24(s0)
    8000290e:	853e                	mv	a0,a5
    80002910:	fffff097          	auipc	ra,0xfffff
    80002914:	9d4080e7          	jalr	-1580(ra) # 800012e4 <release>
    80002918:	4781                	li	a5,0
    8000291a:	a89d                	j	80002990 <allocproc+0x10c>
    8000291c:	fe843503          	ld	a0,-24(s0)
    80002920:	00000097          	auipc	ra,0x0
    80002924:	118080e7          	jalr	280(ra) # 80002a38 <proc_pagetable>
    80002928:	872a                	mv	a4,a0
    8000292a:	fe843783          	ld	a5,-24(s0)
    8000292e:	ebb8                	sd	a4,80(a5)
    80002930:	fe843783          	ld	a5,-24(s0)
    80002934:	6bbc                	ld	a5,80(a5)
    80002936:	e385                	bnez	a5,80002956 <allocproc+0xd2>
    80002938:	fe843503          	ld	a0,-24(s0)
    8000293c:	00000097          	auipc	ra,0x0
    80002940:	05e080e7          	jalr	94(ra) # 8000299a <freeproc>
    80002944:	fe843783          	ld	a5,-24(s0)
    80002948:	853e                	mv	a0,a5
    8000294a:	fffff097          	auipc	ra,0xfffff
    8000294e:	99a080e7          	jalr	-1638(ra) # 800012e4 <release>
    80002952:	4781                	li	a5,0
    80002954:	a835                	j	80002990 <allocproc+0x10c>
    80002956:	fe843783          	ld	a5,-24(s0)
    8000295a:	06078793          	addi	a5,a5,96
    8000295e:	07000613          	li	a2,112
    80002962:	4581                	li	a1,0
    80002964:	853e                	mv	a0,a5
    80002966:	fffff097          	auipc	ra,0xfffff
    8000296a:	aee080e7          	jalr	-1298(ra) # 80001454 <memset>
    8000296e:	00001717          	auipc	a4,0x1
    80002972:	a0070713          	addi	a4,a4,-1536 # 8000336e <forkret>
    80002976:	fe843783          	ld	a5,-24(s0)
    8000297a:	f3b8                	sd	a4,96(a5)
    8000297c:	fe843783          	ld	a5,-24(s0)
    80002980:	63b8                	ld	a4,64(a5)
    80002982:	6785                	lui	a5,0x1
    80002984:	973e                	add	a4,a4,a5
    80002986:	fe843783          	ld	a5,-24(s0)
    8000298a:	f7b8                	sd	a4,104(a5)
    8000298c:	fe843783          	ld	a5,-24(s0)
    80002990:	853e                	mv	a0,a5
    80002992:	60e2                	ld	ra,24(sp)
    80002994:	6442                	ld	s0,16(sp)
    80002996:	6105                	addi	sp,sp,32
    80002998:	8082                	ret

000000008000299a <freeproc>:
    8000299a:	1101                	addi	sp,sp,-32
    8000299c:	ec06                	sd	ra,24(sp)
    8000299e:	e822                	sd	s0,16(sp)
    800029a0:	1000                	addi	s0,sp,32
    800029a2:	fea43423          	sd	a0,-24(s0)
    800029a6:	fe843783          	ld	a5,-24(s0)
    800029aa:	6fbc                	ld	a5,88(a5)
    800029ac:	cb89                	beqz	a5,800029be <freeproc+0x24>
    800029ae:	fe843783          	ld	a5,-24(s0)
    800029b2:	6fbc                	ld	a5,88(a5)
    800029b4:	853e                	mv	a0,a5
    800029b6:	ffffe097          	auipc	ra,0xffffe
    800029ba:	6d2080e7          	jalr	1746(ra) # 80001088 <kfree>
    800029be:	fe843783          	ld	a5,-24(s0)
    800029c2:	0407bc23          	sd	zero,88(a5) # 1058 <_entry-0x7fffefa8>
    800029c6:	fe843783          	ld	a5,-24(s0)
    800029ca:	6bbc                	ld	a5,80(a5)
    800029cc:	cf89                	beqz	a5,800029e6 <freeproc+0x4c>
    800029ce:	fe843783          	ld	a5,-24(s0)
    800029d2:	6bb8                	ld	a4,80(a5)
    800029d4:	fe843783          	ld	a5,-24(s0)
    800029d8:	67bc                	ld	a5,72(a5)
    800029da:	85be                	mv	a1,a5
    800029dc:	853a                	mv	a0,a4
    800029de:	00000097          	auipc	ra,0x0
    800029e2:	11a080e7          	jalr	282(ra) # 80002af8 <proc_freepagetable>
    800029e6:	fe843783          	ld	a5,-24(s0)
    800029ea:	0407b823          	sd	zero,80(a5)
    800029ee:	fe843783          	ld	a5,-24(s0)
    800029f2:	0407b423          	sd	zero,72(a5)
    800029f6:	fe843783          	ld	a5,-24(s0)
    800029fa:	0207ac23          	sw	zero,56(a5)
    800029fe:	fe843783          	ld	a5,-24(s0)
    80002a02:	0207b023          	sd	zero,32(a5)
    80002a06:	fe843783          	ld	a5,-24(s0)
    80002a0a:	14078c23          	sb	zero,344(a5)
    80002a0e:	fe843783          	ld	a5,-24(s0)
    80002a12:	0207b423          	sd	zero,40(a5)
    80002a16:	fe843783          	ld	a5,-24(s0)
    80002a1a:	0207a823          	sw	zero,48(a5)
    80002a1e:	fe843783          	ld	a5,-24(s0)
    80002a22:	0207aa23          	sw	zero,52(a5)
    80002a26:	fe843783          	ld	a5,-24(s0)
    80002a2a:	0007ac23          	sw	zero,24(a5)
    80002a2e:	0001                	nop
    80002a30:	60e2                	ld	ra,24(sp)
    80002a32:	6442                	ld	s0,16(sp)
    80002a34:	6105                	addi	sp,sp,32
    80002a36:	8082                	ret

0000000080002a38 <proc_pagetable>:
    80002a38:	7179                	addi	sp,sp,-48
    80002a3a:	f406                	sd	ra,40(sp)
    80002a3c:	f022                	sd	s0,32(sp)
    80002a3e:	1800                	addi	s0,sp,48
    80002a40:	fca43c23          	sd	a0,-40(s0)
    80002a44:	fffff097          	auipc	ra,0xfffff
    80002a48:	3ee080e7          	jalr	1006(ra) # 80001e32 <uvmcreate>
    80002a4c:	fea43423          	sd	a0,-24(s0)
    80002a50:	fe843783          	ld	a5,-24(s0)
    80002a54:	e399                	bnez	a5,80002a5a <proc_pagetable+0x22>
    80002a56:	4781                	li	a5,0
    80002a58:	a859                	j	80002aee <proc_pagetable+0xb6>
    80002a5a:	00007797          	auipc	a5,0x7
    80002a5e:	5a678793          	addi	a5,a5,1446 # 8000a000 <_trampoline>
    80002a62:	4729                	li	a4,10
    80002a64:	86be                	mv	a3,a5
    80002a66:	6605                	lui	a2,0x1
    80002a68:	040007b7          	lui	a5,0x4000
    80002a6c:	17fd                	addi	a5,a5,-1
    80002a6e:	00c79593          	slli	a1,a5,0xc
    80002a72:	fe843503          	ld	a0,-24(s0)
    80002a76:	fffff097          	auipc	ra,0xfffff
    80002a7a:	1f4080e7          	jalr	500(ra) # 80001c6a <mappages>
    80002a7e:	87aa                	mv	a5,a0
    80002a80:	0007db63          	bgez	a5,80002a96 <proc_pagetable+0x5e>
    80002a84:	4581                	li	a1,0
    80002a86:	fe843503          	ld	a0,-24(s0)
    80002a8a:	fffff097          	auipc	ra,0xfffff
    80002a8e:	696080e7          	jalr	1686(ra) # 80002120 <uvmfree>
    80002a92:	4781                	li	a5,0
    80002a94:	a8a9                	j	80002aee <proc_pagetable+0xb6>
    80002a96:	fd843783          	ld	a5,-40(s0)
    80002a9a:	6fbc                	ld	a5,88(a5)
    80002a9c:	4719                	li	a4,6
    80002a9e:	86be                	mv	a3,a5
    80002aa0:	6605                	lui	a2,0x1
    80002aa2:	020007b7          	lui	a5,0x2000
    80002aa6:	17fd                	addi	a5,a5,-1
    80002aa8:	00d79593          	slli	a1,a5,0xd
    80002aac:	fe843503          	ld	a0,-24(s0)
    80002ab0:	fffff097          	auipc	ra,0xfffff
    80002ab4:	1ba080e7          	jalr	442(ra) # 80001c6a <mappages>
    80002ab8:	87aa                	mv	a5,a0
    80002aba:	0207d863          	bgez	a5,80002aea <proc_pagetable+0xb2>
    80002abe:	4681                	li	a3,0
    80002ac0:	4605                	li	a2,1
    80002ac2:	040007b7          	lui	a5,0x4000
    80002ac6:	17fd                	addi	a5,a5,-1
    80002ac8:	00c79593          	slli	a1,a5,0xc
    80002acc:	fe843503          	ld	a0,-24(s0)
    80002ad0:	fffff097          	auipc	ra,0xfffff
    80002ad4:	262080e7          	jalr	610(ra) # 80001d32 <uvmunmap>
    80002ad8:	4581                	li	a1,0
    80002ada:	fe843503          	ld	a0,-24(s0)
    80002ade:	fffff097          	auipc	ra,0xfffff
    80002ae2:	642080e7          	jalr	1602(ra) # 80002120 <uvmfree>
    80002ae6:	4781                	li	a5,0
    80002ae8:	a019                	j	80002aee <proc_pagetable+0xb6>
    80002aea:	fe843783          	ld	a5,-24(s0)
    80002aee:	853e                	mv	a0,a5
    80002af0:	70a2                	ld	ra,40(sp)
    80002af2:	7402                	ld	s0,32(sp)
    80002af4:	6145                	addi	sp,sp,48
    80002af6:	8082                	ret

0000000080002af8 <proc_freepagetable>:
    80002af8:	1101                	addi	sp,sp,-32
    80002afa:	ec06                	sd	ra,24(sp)
    80002afc:	e822                	sd	s0,16(sp)
    80002afe:	1000                	addi	s0,sp,32
    80002b00:	fea43423          	sd	a0,-24(s0)
    80002b04:	feb43023          	sd	a1,-32(s0)
    80002b08:	4681                	li	a3,0
    80002b0a:	4605                	li	a2,1
    80002b0c:	040007b7          	lui	a5,0x4000
    80002b10:	17fd                	addi	a5,a5,-1
    80002b12:	00c79593          	slli	a1,a5,0xc
    80002b16:	fe843503          	ld	a0,-24(s0)
    80002b1a:	fffff097          	auipc	ra,0xfffff
    80002b1e:	218080e7          	jalr	536(ra) # 80001d32 <uvmunmap>
    80002b22:	4681                	li	a3,0
    80002b24:	4605                	li	a2,1
    80002b26:	020007b7          	lui	a5,0x2000
    80002b2a:	17fd                	addi	a5,a5,-1
    80002b2c:	00d79593          	slli	a1,a5,0xd
    80002b30:	fe843503          	ld	a0,-24(s0)
    80002b34:	fffff097          	auipc	ra,0xfffff
    80002b38:	1fe080e7          	jalr	510(ra) # 80001d32 <uvmunmap>
    80002b3c:	fe043583          	ld	a1,-32(s0)
    80002b40:	fe843503          	ld	a0,-24(s0)
    80002b44:	fffff097          	auipc	ra,0xfffff
    80002b48:	5dc080e7          	jalr	1500(ra) # 80002120 <uvmfree>
    80002b4c:	0001                	nop
    80002b4e:	60e2                	ld	ra,24(sp)
    80002b50:	6442                	ld	s0,16(sp)
    80002b52:	6105                	addi	sp,sp,32
    80002b54:	8082                	ret

0000000080002b56 <userinit>:
    80002b56:	1101                	addi	sp,sp,-32
    80002b58:	ec06                	sd	ra,24(sp)
    80002b5a:	e822                	sd	s0,16(sp)
    80002b5c:	1000                	addi	s0,sp,32
    80002b5e:	00000097          	auipc	ra,0x0
    80002b62:	d26080e7          	jalr	-730(ra) # 80002884 <allocproc>
    80002b66:	fea43423          	sd	a0,-24(s0)
    80002b6a:	00009797          	auipc	a5,0x9
    80002b6e:	4ae78793          	addi	a5,a5,1198 # 8000c018 <initproc>
    80002b72:	fe843703          	ld	a4,-24(s0)
    80002b76:	e398                	sd	a4,0(a5)
    80002b78:	fe843783          	ld	a5,-24(s0)
    80002b7c:	6bbc                	ld	a5,80(a5)
    80002b7e:	03400613          	li	a2,52
    80002b82:	00009597          	auipc	a1,0x9
    80002b86:	bf658593          	addi	a1,a1,-1034 # 8000b778 <initcode>
    80002b8a:	853e                	mv	a0,a5
    80002b8c:	fffff097          	auipc	ra,0xfffff
    80002b90:	2e2080e7          	jalr	738(ra) # 80001e6e <uvminit>
    80002b94:	fe843783          	ld	a5,-24(s0)
    80002b98:	6705                	lui	a4,0x1
    80002b9a:	e7b8                	sd	a4,72(a5)
    80002b9c:	fe843783          	ld	a5,-24(s0)
    80002ba0:	6fbc                	ld	a5,88(a5)
    80002ba2:	0007bc23          	sd	zero,24(a5)
    80002ba6:	fe843783          	ld	a5,-24(s0)
    80002baa:	6fbc                	ld	a5,88(a5)
    80002bac:	6705                	lui	a4,0x1
    80002bae:	fb98                	sd	a4,48(a5)
    80002bb0:	fe843783          	ld	a5,-24(s0)
    80002bb4:	15878793          	addi	a5,a5,344
    80002bb8:	4641                	li	a2,16
    80002bba:	00008597          	auipc	a1,0x8
    80002bbe:	60658593          	addi	a1,a1,1542 # 8000b1c0 <etext+0x1c0>
    80002bc2:	853e                	mv	a0,a5
    80002bc4:	fffff097          	auipc	ra,0xfffff
    80002bc8:	b86080e7          	jalr	-1146(ra) # 8000174a <safestrcpy>
    80002bcc:	00008517          	auipc	a0,0x8
    80002bd0:	60450513          	addi	a0,a0,1540 # 8000b1d0 <etext+0x1d0>
    80002bd4:	00003097          	auipc	ra,0x3
    80002bd8:	140080e7          	jalr	320(ra) # 80005d14 <namei>
    80002bdc:	872a                	mv	a4,a0
    80002bde:	fe843783          	ld	a5,-24(s0)
    80002be2:	14e7b823          	sd	a4,336(a5)
    80002be6:	fe843783          	ld	a5,-24(s0)
    80002bea:	4709                	li	a4,2
    80002bec:	cf98                	sw	a4,24(a5)
    80002bee:	fe843783          	ld	a5,-24(s0)
    80002bf2:	853e                	mv	a0,a5
    80002bf4:	ffffe097          	auipc	ra,0xffffe
    80002bf8:	6f0080e7          	jalr	1776(ra) # 800012e4 <release>
    80002bfc:	0001                	nop
    80002bfe:	60e2                	ld	ra,24(sp)
    80002c00:	6442                	ld	s0,16(sp)
    80002c02:	6105                	addi	sp,sp,32
    80002c04:	8082                	ret

0000000080002c06 <growproc>:
    80002c06:	7179                	addi	sp,sp,-48
    80002c08:	f406                	sd	ra,40(sp)
    80002c0a:	f022                	sd	s0,32(sp)
    80002c0c:	1800                	addi	s0,sp,48
    80002c0e:	87aa                	mv	a5,a0
    80002c10:	fcf42e23          	sw	a5,-36(s0)
    80002c14:	00000097          	auipc	ra,0x0
    80002c18:	bd6080e7          	jalr	-1066(ra) # 800027ea <myproc>
    80002c1c:	fea43023          	sd	a0,-32(s0)
    80002c20:	fe043783          	ld	a5,-32(s0)
    80002c24:	67bc                	ld	a5,72(a5)
    80002c26:	fef42623          	sw	a5,-20(s0)
    80002c2a:	fdc42783          	lw	a5,-36(s0)
    80002c2e:	2781                	sext.w	a5,a5
    80002c30:	02f05e63          	blez	a5,80002c6c <growproc+0x66>
    80002c34:	fe043783          	ld	a5,-32(s0)
    80002c38:	6bb4                	ld	a3,80(a5)
    80002c3a:	fec46583          	lwu	a1,-20(s0)
    80002c3e:	fdc42783          	lw	a5,-36(s0)
    80002c42:	fec42703          	lw	a4,-20(s0)
    80002c46:	9fb9                	addw	a5,a5,a4
    80002c48:	2781                	sext.w	a5,a5
    80002c4a:	1782                	slli	a5,a5,0x20
    80002c4c:	9381                	srli	a5,a5,0x20
    80002c4e:	863e                	mv	a2,a5
    80002c50:	8536                	mv	a0,a3
    80002c52:	fffff097          	auipc	ra,0xfffff
    80002c56:	2a4080e7          	jalr	676(ra) # 80001ef6 <uvmalloc>
    80002c5a:	87aa                	mv	a5,a0
    80002c5c:	fef42623          	sw	a5,-20(s0)
    80002c60:	fec42783          	lw	a5,-20(s0)
    80002c64:	2781                	sext.w	a5,a5
    80002c66:	ef95                	bnez	a5,80002ca2 <growproc+0x9c>
    80002c68:	57fd                	li	a5,-1
    80002c6a:	a091                	j	80002cae <growproc+0xa8>
    80002c6c:	fdc42783          	lw	a5,-36(s0)
    80002c70:	2781                	sext.w	a5,a5
    80002c72:	0207d863          	bgez	a5,80002ca2 <growproc+0x9c>
    80002c76:	fe043783          	ld	a5,-32(s0)
    80002c7a:	6bb4                	ld	a3,80(a5)
    80002c7c:	fec46583          	lwu	a1,-20(s0)
    80002c80:	fdc42783          	lw	a5,-36(s0)
    80002c84:	fec42703          	lw	a4,-20(s0)
    80002c88:	9fb9                	addw	a5,a5,a4
    80002c8a:	2781                	sext.w	a5,a5
    80002c8c:	1782                	slli	a5,a5,0x20
    80002c8e:	9381                	srli	a5,a5,0x20
    80002c90:	863e                	mv	a2,a5
    80002c92:	8536                	mv	a0,a3
    80002c94:	fffff097          	auipc	ra,0xfffff
    80002c98:	346080e7          	jalr	838(ra) # 80001fda <uvmdealloc>
    80002c9c:	87aa                	mv	a5,a0
    80002c9e:	fef42623          	sw	a5,-20(s0)
    80002ca2:	fec46703          	lwu	a4,-20(s0)
    80002ca6:	fe043783          	ld	a5,-32(s0)
    80002caa:	e7b8                	sd	a4,72(a5)
    80002cac:	4781                	li	a5,0
    80002cae:	853e                	mv	a0,a5
    80002cb0:	70a2                	ld	ra,40(sp)
    80002cb2:	7402                	ld	s0,32(sp)
    80002cb4:	6145                	addi	sp,sp,48
    80002cb6:	8082                	ret

0000000080002cb8 <fork>:
    80002cb8:	7179                	addi	sp,sp,-48
    80002cba:	f406                	sd	ra,40(sp)
    80002cbc:	f022                	sd	s0,32(sp)
    80002cbe:	1800                	addi	s0,sp,48
    80002cc0:	00000097          	auipc	ra,0x0
    80002cc4:	b2a080e7          	jalr	-1238(ra) # 800027ea <myproc>
    80002cc8:	fea43023          	sd	a0,-32(s0)
    80002ccc:	00000097          	auipc	ra,0x0
    80002cd0:	bb8080e7          	jalr	-1096(ra) # 80002884 <allocproc>
    80002cd4:	fca43c23          	sd	a0,-40(s0)
    80002cd8:	fd843783          	ld	a5,-40(s0)
    80002cdc:	e399                	bnez	a5,80002ce2 <fork+0x2a>
    80002cde:	57fd                	li	a5,-1
    80002ce0:	a281                	j	80002e20 <fork+0x168>
    80002ce2:	fe043783          	ld	a5,-32(s0)
    80002ce6:	6bb8                	ld	a4,80(a5)
    80002ce8:	fd843783          	ld	a5,-40(s0)
    80002cec:	6bb4                	ld	a3,80(a5)
    80002cee:	fe043783          	ld	a5,-32(s0)
    80002cf2:	67bc                	ld	a5,72(a5)
    80002cf4:	863e                	mv	a2,a5
    80002cf6:	85b6                	mv	a1,a3
    80002cf8:	853a                	mv	a0,a4
    80002cfa:	fffff097          	auipc	ra,0xfffff
    80002cfe:	470080e7          	jalr	1136(ra) # 8000216a <uvmcopy>
    80002d02:	87aa                	mv	a5,a0
    80002d04:	0207d163          	bgez	a5,80002d26 <fork+0x6e>
    80002d08:	fd843503          	ld	a0,-40(s0)
    80002d0c:	00000097          	auipc	ra,0x0
    80002d10:	c8e080e7          	jalr	-882(ra) # 8000299a <freeproc>
    80002d14:	fd843783          	ld	a5,-40(s0)
    80002d18:	853e                	mv	a0,a5
    80002d1a:	ffffe097          	auipc	ra,0xffffe
    80002d1e:	5ca080e7          	jalr	1482(ra) # 800012e4 <release>
    80002d22:	57fd                	li	a5,-1
    80002d24:	a8f5                	j	80002e20 <fork+0x168>
    80002d26:	fe043783          	ld	a5,-32(s0)
    80002d2a:	67b8                	ld	a4,72(a5)
    80002d2c:	fd843783          	ld	a5,-40(s0)
    80002d30:	e7b8                	sd	a4,72(a5)
    80002d32:	fd843783          	ld	a5,-40(s0)
    80002d36:	fe043703          	ld	a4,-32(s0)
    80002d3a:	f398                	sd	a4,32(a5)
    80002d3c:	fe043783          	ld	a5,-32(s0)
    80002d40:	6fb8                	ld	a4,88(a5)
    80002d42:	fd843783          	ld	a5,-40(s0)
    80002d46:	6fbc                	ld	a5,88(a5)
    80002d48:	86be                	mv	a3,a5
    80002d4a:	12000793          	li	a5,288
    80002d4e:	863e                	mv	a2,a5
    80002d50:	85ba                	mv	a1,a4
    80002d52:	8536                	mv	a0,a3
    80002d54:	fffff097          	auipc	ra,0xfffff
    80002d58:	8b2080e7          	jalr	-1870(ra) # 80001606 <memcpy>
    80002d5c:	fd843783          	ld	a5,-40(s0)
    80002d60:	6fbc                	ld	a5,88(a5)
    80002d62:	0607b823          	sd	zero,112(a5)
    80002d66:	fe042623          	sw	zero,-20(s0)
    80002d6a:	a0a9                	j	80002db4 <fork+0xfc>
    80002d6c:	fe043703          	ld	a4,-32(s0)
    80002d70:	fec42783          	lw	a5,-20(s0)
    80002d74:	07e9                	addi	a5,a5,26
    80002d76:	078e                	slli	a5,a5,0x3
    80002d78:	97ba                	add	a5,a5,a4
    80002d7a:	639c                	ld	a5,0(a5)
    80002d7c:	c79d                	beqz	a5,80002daa <fork+0xf2>
    80002d7e:	fe043703          	ld	a4,-32(s0)
    80002d82:	fec42783          	lw	a5,-20(s0)
    80002d86:	07e9                	addi	a5,a5,26
    80002d88:	078e                	slli	a5,a5,0x3
    80002d8a:	97ba                	add	a5,a5,a4
    80002d8c:	639c                	ld	a5,0(a5)
    80002d8e:	853e                	mv	a0,a5
    80002d90:	00004097          	auipc	ra,0x4
    80002d94:	91c080e7          	jalr	-1764(ra) # 800066ac <filedup>
    80002d98:	86aa                	mv	a3,a0
    80002d9a:	fd843703          	ld	a4,-40(s0)
    80002d9e:	fec42783          	lw	a5,-20(s0)
    80002da2:	07e9                	addi	a5,a5,26
    80002da4:	078e                	slli	a5,a5,0x3
    80002da6:	97ba                	add	a5,a5,a4
    80002da8:	e394                	sd	a3,0(a5)
    80002daa:	fec42783          	lw	a5,-20(s0)
    80002dae:	2785                	addiw	a5,a5,1
    80002db0:	fef42623          	sw	a5,-20(s0)
    80002db4:	fec42783          	lw	a5,-20(s0)
    80002db8:	0007871b          	sext.w	a4,a5
    80002dbc:	47bd                	li	a5,15
    80002dbe:	fae7d7e3          	bge	a5,a4,80002d6c <fork+0xb4>
    80002dc2:	fe043783          	ld	a5,-32(s0)
    80002dc6:	1507b783          	ld	a5,336(a5)
    80002dca:	853e                	mv	a0,a5
    80002dcc:	00002097          	auipc	ra,0x2
    80002dd0:	1f8080e7          	jalr	504(ra) # 80004fc4 <idup>
    80002dd4:	872a                	mv	a4,a0
    80002dd6:	fd843783          	ld	a5,-40(s0)
    80002dda:	14e7b823          	sd	a4,336(a5)
    80002dde:	fd843783          	ld	a5,-40(s0)
    80002de2:	15878713          	addi	a4,a5,344
    80002de6:	fe043783          	ld	a5,-32(s0)
    80002dea:	15878793          	addi	a5,a5,344
    80002dee:	4641                	li	a2,16
    80002df0:	85be                	mv	a1,a5
    80002df2:	853a                	mv	a0,a4
    80002df4:	fffff097          	auipc	ra,0xfffff
    80002df8:	956080e7          	jalr	-1706(ra) # 8000174a <safestrcpy>
    80002dfc:	fd843783          	ld	a5,-40(s0)
    80002e00:	5f9c                	lw	a5,56(a5)
    80002e02:	fcf42a23          	sw	a5,-44(s0)
    80002e06:	fd843783          	ld	a5,-40(s0)
    80002e0a:	4709                	li	a4,2
    80002e0c:	cf98                	sw	a4,24(a5)
    80002e0e:	fd843783          	ld	a5,-40(s0)
    80002e12:	853e                	mv	a0,a5
    80002e14:	ffffe097          	auipc	ra,0xffffe
    80002e18:	4d0080e7          	jalr	1232(ra) # 800012e4 <release>
    80002e1c:	fd442783          	lw	a5,-44(s0)
    80002e20:	853e                	mv	a0,a5
    80002e22:	70a2                	ld	ra,40(sp)
    80002e24:	7402                	ld	s0,32(sp)
    80002e26:	6145                	addi	sp,sp,48
    80002e28:	8082                	ret

0000000080002e2a <reparent>:
    80002e2a:	7179                	addi	sp,sp,-48
    80002e2c:	f406                	sd	ra,40(sp)
    80002e2e:	f022                	sd	s0,32(sp)
    80002e30:	1800                	addi	s0,sp,48
    80002e32:	fca43c23          	sd	a0,-40(s0)
    80002e36:	00012797          	auipc	a5,0x12
    80002e3a:	86278793          	addi	a5,a5,-1950 # 80014698 <proc>
    80002e3e:	fef43423          	sd	a5,-24(s0)
    80002e42:	a0a1                	j	80002e8a <reparent+0x60>
    80002e44:	fe843783          	ld	a5,-24(s0)
    80002e48:	739c                	ld	a5,32(a5)
    80002e4a:	fd843703          	ld	a4,-40(s0)
    80002e4e:	02f71863          	bne	a4,a5,80002e7e <reparent+0x54>
    80002e52:	fe843783          	ld	a5,-24(s0)
    80002e56:	853e                	mv	a0,a5
    80002e58:	ffffe097          	auipc	ra,0xffffe
    80002e5c:	428080e7          	jalr	1064(ra) # 80001280 <acquire>
    80002e60:	00009797          	auipc	a5,0x9
    80002e64:	1b878793          	addi	a5,a5,440 # 8000c018 <initproc>
    80002e68:	6398                	ld	a4,0(a5)
    80002e6a:	fe843783          	ld	a5,-24(s0)
    80002e6e:	f398                	sd	a4,32(a5)
    80002e70:	fe843783          	ld	a5,-24(s0)
    80002e74:	853e                	mv	a0,a5
    80002e76:	ffffe097          	auipc	ra,0xffffe
    80002e7a:	46e080e7          	jalr	1134(ra) # 800012e4 <release>
    80002e7e:	fe843783          	ld	a5,-24(s0)
    80002e82:	16878793          	addi	a5,a5,360
    80002e86:	fef43423          	sd	a5,-24(s0)
    80002e8a:	fe843703          	ld	a4,-24(s0)
    80002e8e:	00017797          	auipc	a5,0x17
    80002e92:	20a78793          	addi	a5,a5,522 # 8001a098 <pid_lock>
    80002e96:	faf767e3          	bltu	a4,a5,80002e44 <reparent+0x1a>
    80002e9a:	0001                	nop
    80002e9c:	0001                	nop
    80002e9e:	70a2                	ld	ra,40(sp)
    80002ea0:	7402                	ld	s0,32(sp)
    80002ea2:	6145                	addi	sp,sp,48
    80002ea4:	8082                	ret

0000000080002ea6 <exit>:
    80002ea6:	7139                	addi	sp,sp,-64
    80002ea8:	fc06                	sd	ra,56(sp)
    80002eaa:	f822                	sd	s0,48(sp)
    80002eac:	0080                	addi	s0,sp,64
    80002eae:	87aa                	mv	a5,a0
    80002eb0:	fcf42623          	sw	a5,-52(s0)
    80002eb4:	00000097          	auipc	ra,0x0
    80002eb8:	936080e7          	jalr	-1738(ra) # 800027ea <myproc>
    80002ebc:	fea43023          	sd	a0,-32(s0)
    80002ec0:	00009797          	auipc	a5,0x9
    80002ec4:	15878793          	addi	a5,a5,344 # 8000c018 <initproc>
    80002ec8:	639c                	ld	a5,0(a5)
    80002eca:	fe043703          	ld	a4,-32(s0)
    80002ece:	00f71a63          	bne	a4,a5,80002ee2 <exit+0x3c>
    80002ed2:	00008517          	auipc	a0,0x8
    80002ed6:	30650513          	addi	a0,a0,774 # 8000b1d8 <etext+0x1d8>
    80002eda:	ffffe097          	auipc	ra,0xffffe
    80002ede:	d78080e7          	jalr	-648(ra) # 80000c52 <panic>
    80002ee2:	fe042623          	sw	zero,-20(s0)
    80002ee6:	a881                	j	80002f36 <exit+0x90>
    80002ee8:	fe043703          	ld	a4,-32(s0)
    80002eec:	fec42783          	lw	a5,-20(s0)
    80002ef0:	07e9                	addi	a5,a5,26
    80002ef2:	078e                	slli	a5,a5,0x3
    80002ef4:	97ba                	add	a5,a5,a4
    80002ef6:	639c                	ld	a5,0(a5)
    80002ef8:	cb95                	beqz	a5,80002f2c <exit+0x86>
    80002efa:	fe043703          	ld	a4,-32(s0)
    80002efe:	fec42783          	lw	a5,-20(s0)
    80002f02:	07e9                	addi	a5,a5,26
    80002f04:	078e                	slli	a5,a5,0x3
    80002f06:	97ba                	add	a5,a5,a4
    80002f08:	639c                	ld	a5,0(a5)
    80002f0a:	fcf43823          	sd	a5,-48(s0)
    80002f0e:	fd043503          	ld	a0,-48(s0)
    80002f12:	00004097          	auipc	ra,0x4
    80002f16:	800080e7          	jalr	-2048(ra) # 80006712 <fileclose>
    80002f1a:	fe043703          	ld	a4,-32(s0)
    80002f1e:	fec42783          	lw	a5,-20(s0)
    80002f22:	07e9                	addi	a5,a5,26
    80002f24:	078e                	slli	a5,a5,0x3
    80002f26:	97ba                	add	a5,a5,a4
    80002f28:	0007b023          	sd	zero,0(a5)
    80002f2c:	fec42783          	lw	a5,-20(s0)
    80002f30:	2785                	addiw	a5,a5,1
    80002f32:	fef42623          	sw	a5,-20(s0)
    80002f36:	fec42783          	lw	a5,-20(s0)
    80002f3a:	0007871b          	sext.w	a4,a5
    80002f3e:	47bd                	li	a5,15
    80002f40:	fae7d4e3          	bge	a5,a4,80002ee8 <exit+0x42>
    80002f44:	00003097          	auipc	ra,0x3
    80002f48:	134080e7          	jalr	308(ra) # 80006078 <begin_op>
    80002f4c:	fe043783          	ld	a5,-32(s0)
    80002f50:	1507b783          	ld	a5,336(a5)
    80002f54:	853e                	mv	a0,a5
    80002f56:	00002097          	auipc	ra,0x2
    80002f5a:	248080e7          	jalr	584(ra) # 8000519e <iput>
    80002f5e:	00003097          	auipc	ra,0x3
    80002f62:	1dc080e7          	jalr	476(ra) # 8000613a <end_op>
    80002f66:	fe043783          	ld	a5,-32(s0)
    80002f6a:	1407b823          	sd	zero,336(a5)
    80002f6e:	00009797          	auipc	a5,0x9
    80002f72:	0aa78793          	addi	a5,a5,170 # 8000c018 <initproc>
    80002f76:	639c                	ld	a5,0(a5)
    80002f78:	853e                	mv	a0,a5
    80002f7a:	ffffe097          	auipc	ra,0xffffe
    80002f7e:	306080e7          	jalr	774(ra) # 80001280 <acquire>
    80002f82:	00009797          	auipc	a5,0x9
    80002f86:	09678793          	addi	a5,a5,150 # 8000c018 <initproc>
    80002f8a:	639c                	ld	a5,0(a5)
    80002f8c:	853e                	mv	a0,a5
    80002f8e:	00000097          	auipc	ra,0x0
    80002f92:	546080e7          	jalr	1350(ra) # 800034d4 <wakeup1>
    80002f96:	00009797          	auipc	a5,0x9
    80002f9a:	08278793          	addi	a5,a5,130 # 8000c018 <initproc>
    80002f9e:	639c                	ld	a5,0(a5)
    80002fa0:	853e                	mv	a0,a5
    80002fa2:	ffffe097          	auipc	ra,0xffffe
    80002fa6:	342080e7          	jalr	834(ra) # 800012e4 <release>
    80002faa:	fe043783          	ld	a5,-32(s0)
    80002fae:	853e                	mv	a0,a5
    80002fb0:	ffffe097          	auipc	ra,0xffffe
    80002fb4:	2d0080e7          	jalr	720(ra) # 80001280 <acquire>
    80002fb8:	fe043783          	ld	a5,-32(s0)
    80002fbc:	739c                	ld	a5,32(a5)
    80002fbe:	fcf43c23          	sd	a5,-40(s0)
    80002fc2:	fe043783          	ld	a5,-32(s0)
    80002fc6:	853e                	mv	a0,a5
    80002fc8:	ffffe097          	auipc	ra,0xffffe
    80002fcc:	31c080e7          	jalr	796(ra) # 800012e4 <release>
    80002fd0:	fd843783          	ld	a5,-40(s0)
    80002fd4:	853e                	mv	a0,a5
    80002fd6:	ffffe097          	auipc	ra,0xffffe
    80002fda:	2aa080e7          	jalr	682(ra) # 80001280 <acquire>
    80002fde:	fe043783          	ld	a5,-32(s0)
    80002fe2:	853e                	mv	a0,a5
    80002fe4:	ffffe097          	auipc	ra,0xffffe
    80002fe8:	29c080e7          	jalr	668(ra) # 80001280 <acquire>
    80002fec:	fe043503          	ld	a0,-32(s0)
    80002ff0:	00000097          	auipc	ra,0x0
    80002ff4:	e3a080e7          	jalr	-454(ra) # 80002e2a <reparent>
    80002ff8:	fd843503          	ld	a0,-40(s0)
    80002ffc:	00000097          	auipc	ra,0x0
    80003000:	4d8080e7          	jalr	1240(ra) # 800034d4 <wakeup1>
    80003004:	fe043783          	ld	a5,-32(s0)
    80003008:	fcc42703          	lw	a4,-52(s0)
    8000300c:	dbd8                	sw	a4,52(a5)
    8000300e:	fe043783          	ld	a5,-32(s0)
    80003012:	4711                	li	a4,4
    80003014:	cf98                	sw	a4,24(a5)
    80003016:	fd843783          	ld	a5,-40(s0)
    8000301a:	853e                	mv	a0,a5
    8000301c:	ffffe097          	auipc	ra,0xffffe
    80003020:	2c8080e7          	jalr	712(ra) # 800012e4 <release>
    80003024:	00000097          	auipc	ra,0x0
    80003028:	21e080e7          	jalr	542(ra) # 80003242 <sched>
    8000302c:	00008517          	auipc	a0,0x8
    80003030:	1bc50513          	addi	a0,a0,444 # 8000b1e8 <etext+0x1e8>
    80003034:	ffffe097          	auipc	ra,0xffffe
    80003038:	c1e080e7          	jalr	-994(ra) # 80000c52 <panic>

000000008000303c <wait>:
    8000303c:	7139                	addi	sp,sp,-64
    8000303e:	fc06                	sd	ra,56(sp)
    80003040:	f822                	sd	s0,48(sp)
    80003042:	0080                	addi	s0,sp,64
    80003044:	fca43423          	sd	a0,-56(s0)
    80003048:	fffff097          	auipc	ra,0xfffff
    8000304c:	7a2080e7          	jalr	1954(ra) # 800027ea <myproc>
    80003050:	fca43c23          	sd	a0,-40(s0)
    80003054:	fd843783          	ld	a5,-40(s0)
    80003058:	853e                	mv	a0,a5
    8000305a:	ffffe097          	auipc	ra,0xffffe
    8000305e:	226080e7          	jalr	550(ra) # 80001280 <acquire>
    80003062:	fe042223          	sw	zero,-28(s0)
    80003066:	00011797          	auipc	a5,0x11
    8000306a:	63278793          	addi	a5,a5,1586 # 80014698 <proc>
    8000306e:	fef43423          	sd	a5,-24(s0)
    80003072:	a8c1                	j	80003142 <wait+0x106>
    80003074:	fe843783          	ld	a5,-24(s0)
    80003078:	739c                	ld	a5,32(a5)
    8000307a:	fd843703          	ld	a4,-40(s0)
    8000307e:	0af71c63          	bne	a4,a5,80003136 <wait+0xfa>
    80003082:	fe843783          	ld	a5,-24(s0)
    80003086:	853e                	mv	a0,a5
    80003088:	ffffe097          	auipc	ra,0xffffe
    8000308c:	1f8080e7          	jalr	504(ra) # 80001280 <acquire>
    80003090:	4785                	li	a5,1
    80003092:	fef42223          	sw	a5,-28(s0)
    80003096:	fe843783          	ld	a5,-24(s0)
    8000309a:	4f9c                	lw	a5,24(a5)
    8000309c:	873e                	mv	a4,a5
    8000309e:	4791                	li	a5,4
    800030a0:	08f71463          	bne	a4,a5,80003128 <wait+0xec>
    800030a4:	fe843783          	ld	a5,-24(s0)
    800030a8:	5f9c                	lw	a5,56(a5)
    800030aa:	fcf42a23          	sw	a5,-44(s0)
    800030ae:	fc843783          	ld	a5,-56(s0)
    800030b2:	c7a1                	beqz	a5,800030fa <wait+0xbe>
    800030b4:	fd843783          	ld	a5,-40(s0)
    800030b8:	6bb8                	ld	a4,80(a5)
    800030ba:	fe843783          	ld	a5,-24(s0)
    800030be:	03478793          	addi	a5,a5,52
    800030c2:	4691                	li	a3,4
    800030c4:	863e                	mv	a2,a5
    800030c6:	fc843583          	ld	a1,-56(s0)
    800030ca:	853a                	mv	a0,a4
    800030cc:	fffff097          	auipc	ra,0xfffff
    800030d0:	208080e7          	jalr	520(ra) # 800022d4 <copyout>
    800030d4:	87aa                	mv	a5,a0
    800030d6:	0207d263          	bgez	a5,800030fa <wait+0xbe>
    800030da:	fe843783          	ld	a5,-24(s0)
    800030de:	853e                	mv	a0,a5
    800030e0:	ffffe097          	auipc	ra,0xffffe
    800030e4:	204080e7          	jalr	516(ra) # 800012e4 <release>
    800030e8:	fd843783          	ld	a5,-40(s0)
    800030ec:	853e                	mv	a0,a5
    800030ee:	ffffe097          	auipc	ra,0xffffe
    800030f2:	1f6080e7          	jalr	502(ra) # 800012e4 <release>
    800030f6:	57fd                	li	a5,-1
    800030f8:	a841                	j	80003188 <wait+0x14c>
    800030fa:	fe843503          	ld	a0,-24(s0)
    800030fe:	00000097          	auipc	ra,0x0
    80003102:	89c080e7          	jalr	-1892(ra) # 8000299a <freeproc>
    80003106:	fe843783          	ld	a5,-24(s0)
    8000310a:	853e                	mv	a0,a5
    8000310c:	ffffe097          	auipc	ra,0xffffe
    80003110:	1d8080e7          	jalr	472(ra) # 800012e4 <release>
    80003114:	fd843783          	ld	a5,-40(s0)
    80003118:	853e                	mv	a0,a5
    8000311a:	ffffe097          	auipc	ra,0xffffe
    8000311e:	1ca080e7          	jalr	458(ra) # 800012e4 <release>
    80003122:	fd442783          	lw	a5,-44(s0)
    80003126:	a08d                	j	80003188 <wait+0x14c>
    80003128:	fe843783          	ld	a5,-24(s0)
    8000312c:	853e                	mv	a0,a5
    8000312e:	ffffe097          	auipc	ra,0xffffe
    80003132:	1b6080e7          	jalr	438(ra) # 800012e4 <release>
    80003136:	fe843783          	ld	a5,-24(s0)
    8000313a:	16878793          	addi	a5,a5,360
    8000313e:	fef43423          	sd	a5,-24(s0)
    80003142:	fe843703          	ld	a4,-24(s0)
    80003146:	00017797          	auipc	a5,0x17
    8000314a:	f5278793          	addi	a5,a5,-174 # 8001a098 <pid_lock>
    8000314e:	f2f763e3          	bltu	a4,a5,80003074 <wait+0x38>
    80003152:	fe442783          	lw	a5,-28(s0)
    80003156:	2781                	sext.w	a5,a5
    80003158:	c789                	beqz	a5,80003162 <wait+0x126>
    8000315a:	fd843783          	ld	a5,-40(s0)
    8000315e:	5b9c                	lw	a5,48(a5)
    80003160:	cb91                	beqz	a5,80003174 <wait+0x138>
    80003162:	fd843783          	ld	a5,-40(s0)
    80003166:	853e                	mv	a0,a5
    80003168:	ffffe097          	auipc	ra,0xffffe
    8000316c:	17c080e7          	jalr	380(ra) # 800012e4 <release>
    80003170:	57fd                	li	a5,-1
    80003172:	a819                	j	80003188 <wait+0x14c>
    80003174:	fd843783          	ld	a5,-40(s0)
    80003178:	85be                	mv	a1,a5
    8000317a:	fd843503          	ld	a0,-40(s0)
    8000317e:	00000097          	auipc	ra,0x0
    80003182:	240080e7          	jalr	576(ra) # 800033be <sleep>
    80003186:	bdf1                	j	80003062 <wait+0x26>
    80003188:	853e                	mv	a0,a5
    8000318a:	70e2                	ld	ra,56(sp)
    8000318c:	7442                	ld	s0,48(sp)
    8000318e:	6121                	addi	sp,sp,64
    80003190:	8082                	ret

0000000080003192 <scheduler>:
    80003192:	1101                	addi	sp,sp,-32
    80003194:	ec06                	sd	ra,24(sp)
    80003196:	e822                	sd	s0,16(sp)
    80003198:	1000                	addi	s0,sp,32
    8000319a:	fffff097          	auipc	ra,0xfffff
    8000319e:	616080e7          	jalr	1558(ra) # 800027b0 <mycpu>
    800031a2:	fea43023          	sd	a0,-32(s0)
    800031a6:	fe043783          	ld	a5,-32(s0)
    800031aa:	0007b023          	sd	zero,0(a5)
    800031ae:	fffff097          	auipc	ra,0xfffff
    800031b2:	404080e7          	jalr	1028(ra) # 800025b2 <intr_on>
    800031b6:	00011797          	auipc	a5,0x11
    800031ba:	4e278793          	addi	a5,a5,1250 # 80014698 <proc>
    800031be:	fef43423          	sd	a5,-24(s0)
    800031c2:	a0bd                	j	80003230 <scheduler+0x9e>
    800031c4:	fe843783          	ld	a5,-24(s0)
    800031c8:	853e                	mv	a0,a5
    800031ca:	ffffe097          	auipc	ra,0xffffe
    800031ce:	0b6080e7          	jalr	182(ra) # 80001280 <acquire>
    800031d2:	fe843783          	ld	a5,-24(s0)
    800031d6:	4f9c                	lw	a5,24(a5)
    800031d8:	873e                	mv	a4,a5
    800031da:	4789                	li	a5,2
    800031dc:	02f71d63          	bne	a4,a5,80003216 <scheduler+0x84>
    800031e0:	fe843783          	ld	a5,-24(s0)
    800031e4:	470d                	li	a4,3
    800031e6:	cf98                	sw	a4,24(a5)
    800031e8:	fe043783          	ld	a5,-32(s0)
    800031ec:	fe843703          	ld	a4,-24(s0)
    800031f0:	e398                	sd	a4,0(a5)
    800031f2:	fe043783          	ld	a5,-32(s0)
    800031f6:	00878713          	addi	a4,a5,8
    800031fa:	fe843783          	ld	a5,-24(s0)
    800031fe:	06078793          	addi	a5,a5,96
    80003202:	85be                	mv	a1,a5
    80003204:	853a                	mv	a0,a4
    80003206:	00000097          	auipc	ra,0x0
    8000320a:	594080e7          	jalr	1428(ra) # 8000379a <swtch>
    8000320e:	fe043783          	ld	a5,-32(s0)
    80003212:	0007b023          	sd	zero,0(a5)
    80003216:	fe843783          	ld	a5,-24(s0)
    8000321a:	853e                	mv	a0,a5
    8000321c:	ffffe097          	auipc	ra,0xffffe
    80003220:	0c8080e7          	jalr	200(ra) # 800012e4 <release>
    80003224:	fe843783          	ld	a5,-24(s0)
    80003228:	16878793          	addi	a5,a5,360
    8000322c:	fef43423          	sd	a5,-24(s0)
    80003230:	fe843703          	ld	a4,-24(s0)
    80003234:	00017797          	auipc	a5,0x17
    80003238:	e6478793          	addi	a5,a5,-412 # 8001a098 <pid_lock>
    8000323c:	f8f764e3          	bltu	a4,a5,800031c4 <scheduler+0x32>
    80003240:	b7bd                	j	800031ae <scheduler+0x1c>

0000000080003242 <sched>:
    80003242:	7179                	addi	sp,sp,-48
    80003244:	f406                	sd	ra,40(sp)
    80003246:	f022                	sd	s0,32(sp)
    80003248:	ec26                	sd	s1,24(sp)
    8000324a:	1800                	addi	s0,sp,48
    8000324c:	fffff097          	auipc	ra,0xfffff
    80003250:	59e080e7          	jalr	1438(ra) # 800027ea <myproc>
    80003254:	fca43c23          	sd	a0,-40(s0)
    80003258:	fd843783          	ld	a5,-40(s0)
    8000325c:	853e                	mv	a0,a5
    8000325e:	ffffe097          	auipc	ra,0xffffe
    80003262:	0dc080e7          	jalr	220(ra) # 8000133a <holding>
    80003266:	87aa                	mv	a5,a0
    80003268:	eb89                	bnez	a5,8000327a <sched+0x38>
    8000326a:	00008517          	auipc	a0,0x8
    8000326e:	f8e50513          	addi	a0,a0,-114 # 8000b1f8 <etext+0x1f8>
    80003272:	ffffe097          	auipc	ra,0xffffe
    80003276:	9e0080e7          	jalr	-1568(ra) # 80000c52 <panic>
    8000327a:	fffff097          	auipc	ra,0xfffff
    8000327e:	536080e7          	jalr	1334(ra) # 800027b0 <mycpu>
    80003282:	87aa                	mv	a5,a0
    80003284:	5fbc                	lw	a5,120(a5)
    80003286:	873e                	mv	a4,a5
    80003288:	4785                	li	a5,1
    8000328a:	00f70a63          	beq	a4,a5,8000329e <sched+0x5c>
    8000328e:	00008517          	auipc	a0,0x8
    80003292:	f7a50513          	addi	a0,a0,-134 # 8000b208 <etext+0x208>
    80003296:	ffffe097          	auipc	ra,0xffffe
    8000329a:	9bc080e7          	jalr	-1604(ra) # 80000c52 <panic>
    8000329e:	fd843783          	ld	a5,-40(s0)
    800032a2:	4f9c                	lw	a5,24(a5)
    800032a4:	873e                	mv	a4,a5
    800032a6:	478d                	li	a5,3
    800032a8:	00f71a63          	bne	a4,a5,800032bc <sched+0x7a>
    800032ac:	00008517          	auipc	a0,0x8
    800032b0:	f6c50513          	addi	a0,a0,-148 # 8000b218 <etext+0x218>
    800032b4:	ffffe097          	auipc	ra,0xffffe
    800032b8:	99e080e7          	jalr	-1634(ra) # 80000c52 <panic>
    800032bc:	fffff097          	auipc	ra,0xfffff
    800032c0:	320080e7          	jalr	800(ra) # 800025dc <intr_get>
    800032c4:	87aa                	mv	a5,a0
    800032c6:	cb89                	beqz	a5,800032d8 <sched+0x96>
    800032c8:	00008517          	auipc	a0,0x8
    800032cc:	f6050513          	addi	a0,a0,-160 # 8000b228 <etext+0x228>
    800032d0:	ffffe097          	auipc	ra,0xffffe
    800032d4:	982080e7          	jalr	-1662(ra) # 80000c52 <panic>
    800032d8:	fffff097          	auipc	ra,0xfffff
    800032dc:	4d8080e7          	jalr	1240(ra) # 800027b0 <mycpu>
    800032e0:	87aa                	mv	a5,a0
    800032e2:	5ffc                	lw	a5,124(a5)
    800032e4:	fcf42a23          	sw	a5,-44(s0)
    800032e8:	fd843783          	ld	a5,-40(s0)
    800032ec:	06078493          	addi	s1,a5,96
    800032f0:	fffff097          	auipc	ra,0xfffff
    800032f4:	4c0080e7          	jalr	1216(ra) # 800027b0 <mycpu>
    800032f8:	87aa                	mv	a5,a0
    800032fa:	07a1                	addi	a5,a5,8
    800032fc:	85be                	mv	a1,a5
    800032fe:	8526                	mv	a0,s1
    80003300:	00000097          	auipc	ra,0x0
    80003304:	49a080e7          	jalr	1178(ra) # 8000379a <swtch>
    80003308:	fffff097          	auipc	ra,0xfffff
    8000330c:	4a8080e7          	jalr	1192(ra) # 800027b0 <mycpu>
    80003310:	872a                	mv	a4,a0
    80003312:	fd442783          	lw	a5,-44(s0)
    80003316:	df7c                	sw	a5,124(a4)
    80003318:	0001                	nop
    8000331a:	70a2                	ld	ra,40(sp)
    8000331c:	7402                	ld	s0,32(sp)
    8000331e:	64e2                	ld	s1,24(sp)
    80003320:	6145                	addi	sp,sp,48
    80003322:	8082                	ret

0000000080003324 <yield>:
    80003324:	1101                	addi	sp,sp,-32
    80003326:	ec06                	sd	ra,24(sp)
    80003328:	e822                	sd	s0,16(sp)
    8000332a:	1000                	addi	s0,sp,32
    8000332c:	fffff097          	auipc	ra,0xfffff
    80003330:	4be080e7          	jalr	1214(ra) # 800027ea <myproc>
    80003334:	fea43423          	sd	a0,-24(s0)
    80003338:	fe843783          	ld	a5,-24(s0)
    8000333c:	853e                	mv	a0,a5
    8000333e:	ffffe097          	auipc	ra,0xffffe
    80003342:	f42080e7          	jalr	-190(ra) # 80001280 <acquire>
    80003346:	fe843783          	ld	a5,-24(s0)
    8000334a:	4709                	li	a4,2
    8000334c:	cf98                	sw	a4,24(a5)
    8000334e:	00000097          	auipc	ra,0x0
    80003352:	ef4080e7          	jalr	-268(ra) # 80003242 <sched>
    80003356:	fe843783          	ld	a5,-24(s0)
    8000335a:	853e                	mv	a0,a5
    8000335c:	ffffe097          	auipc	ra,0xffffe
    80003360:	f88080e7          	jalr	-120(ra) # 800012e4 <release>
    80003364:	0001                	nop
    80003366:	60e2                	ld	ra,24(sp)
    80003368:	6442                	ld	s0,16(sp)
    8000336a:	6105                	addi	sp,sp,32
    8000336c:	8082                	ret

000000008000336e <forkret>:
    8000336e:	1141                	addi	sp,sp,-16
    80003370:	e406                	sd	ra,8(sp)
    80003372:	e022                	sd	s0,0(sp)
    80003374:	0800                	addi	s0,sp,16
    80003376:	fffff097          	auipc	ra,0xfffff
    8000337a:	474080e7          	jalr	1140(ra) # 800027ea <myproc>
    8000337e:	87aa                	mv	a5,a0
    80003380:	853e                	mv	a0,a5
    80003382:	ffffe097          	auipc	ra,0xffffe
    80003386:	f62080e7          	jalr	-158(ra) # 800012e4 <release>
    8000338a:	00008797          	auipc	a5,0x8
    8000338e:	3ca78793          	addi	a5,a5,970 # 8000b754 <first.1>
    80003392:	439c                	lw	a5,0(a5)
    80003394:	cf81                	beqz	a5,800033ac <forkret+0x3e>
    80003396:	00008797          	auipc	a5,0x8
    8000339a:	3be78793          	addi	a5,a5,958 # 8000b754 <first.1>
    8000339e:	0007a023          	sw	zero,0(a5)
    800033a2:	4505                	li	a0,1
    800033a4:	00001097          	auipc	ra,0x1
    800033a8:	4fa080e7          	jalr	1274(ra) # 8000489e <fsinit>
    800033ac:	00000097          	auipc	ra,0x0
    800033b0:	78c080e7          	jalr	1932(ra) # 80003b38 <usertrapret>
    800033b4:	0001                	nop
    800033b6:	60a2                	ld	ra,8(sp)
    800033b8:	6402                	ld	s0,0(sp)
    800033ba:	0141                	addi	sp,sp,16
    800033bc:	8082                	ret

00000000800033be <sleep>:
    800033be:	7179                	addi	sp,sp,-48
    800033c0:	f406                	sd	ra,40(sp)
    800033c2:	f022                	sd	s0,32(sp)
    800033c4:	1800                	addi	s0,sp,48
    800033c6:	fca43c23          	sd	a0,-40(s0)
    800033ca:	fcb43823          	sd	a1,-48(s0)
    800033ce:	fffff097          	auipc	ra,0xfffff
    800033d2:	41c080e7          	jalr	1052(ra) # 800027ea <myproc>
    800033d6:	fea43423          	sd	a0,-24(s0)
    800033da:	fe843783          	ld	a5,-24(s0)
    800033de:	fd043703          	ld	a4,-48(s0)
    800033e2:	00f70f63          	beq	a4,a5,80003400 <sleep+0x42>
    800033e6:	fe843783          	ld	a5,-24(s0)
    800033ea:	853e                	mv	a0,a5
    800033ec:	ffffe097          	auipc	ra,0xffffe
    800033f0:	e94080e7          	jalr	-364(ra) # 80001280 <acquire>
    800033f4:	fd043503          	ld	a0,-48(s0)
    800033f8:	ffffe097          	auipc	ra,0xffffe
    800033fc:	eec080e7          	jalr	-276(ra) # 800012e4 <release>
    80003400:	fe843783          	ld	a5,-24(s0)
    80003404:	fd843703          	ld	a4,-40(s0)
    80003408:	f798                	sd	a4,40(a5)
    8000340a:	fe843783          	ld	a5,-24(s0)
    8000340e:	4705                	li	a4,1
    80003410:	cf98                	sw	a4,24(a5)
    80003412:	00000097          	auipc	ra,0x0
    80003416:	e30080e7          	jalr	-464(ra) # 80003242 <sched>
    8000341a:	fe843783          	ld	a5,-24(s0)
    8000341e:	0207b423          	sd	zero,40(a5)
    80003422:	fe843783          	ld	a5,-24(s0)
    80003426:	fd043703          	ld	a4,-48(s0)
    8000342a:	00f70f63          	beq	a4,a5,80003448 <sleep+0x8a>
    8000342e:	fe843783          	ld	a5,-24(s0)
    80003432:	853e                	mv	a0,a5
    80003434:	ffffe097          	auipc	ra,0xffffe
    80003438:	eb0080e7          	jalr	-336(ra) # 800012e4 <release>
    8000343c:	fd043503          	ld	a0,-48(s0)
    80003440:	ffffe097          	auipc	ra,0xffffe
    80003444:	e40080e7          	jalr	-448(ra) # 80001280 <acquire>
    80003448:	0001                	nop
    8000344a:	70a2                	ld	ra,40(sp)
    8000344c:	7402                	ld	s0,32(sp)
    8000344e:	6145                	addi	sp,sp,48
    80003450:	8082                	ret

0000000080003452 <wakeup>:
    80003452:	7179                	addi	sp,sp,-48
    80003454:	f406                	sd	ra,40(sp)
    80003456:	f022                	sd	s0,32(sp)
    80003458:	1800                	addi	s0,sp,48
    8000345a:	fca43c23          	sd	a0,-40(s0)
    8000345e:	00011797          	auipc	a5,0x11
    80003462:	23a78793          	addi	a5,a5,570 # 80014698 <proc>
    80003466:	fef43423          	sd	a5,-24(s0)
    8000346a:	a0b9                	j	800034b8 <wakeup+0x66>
    8000346c:	fe843783          	ld	a5,-24(s0)
    80003470:	853e                	mv	a0,a5
    80003472:	ffffe097          	auipc	ra,0xffffe
    80003476:	e0e080e7          	jalr	-498(ra) # 80001280 <acquire>
    8000347a:	fe843783          	ld	a5,-24(s0)
    8000347e:	4f9c                	lw	a5,24(a5)
    80003480:	873e                	mv	a4,a5
    80003482:	4785                	li	a5,1
    80003484:	00f71d63          	bne	a4,a5,8000349e <wakeup+0x4c>
    80003488:	fe843783          	ld	a5,-24(s0)
    8000348c:	779c                	ld	a5,40(a5)
    8000348e:	fd843703          	ld	a4,-40(s0)
    80003492:	00f71663          	bne	a4,a5,8000349e <wakeup+0x4c>
    80003496:	fe843783          	ld	a5,-24(s0)
    8000349a:	4709                	li	a4,2
    8000349c:	cf98                	sw	a4,24(a5)
    8000349e:	fe843783          	ld	a5,-24(s0)
    800034a2:	853e                	mv	a0,a5
    800034a4:	ffffe097          	auipc	ra,0xffffe
    800034a8:	e40080e7          	jalr	-448(ra) # 800012e4 <release>
    800034ac:	fe843783          	ld	a5,-24(s0)
    800034b0:	16878793          	addi	a5,a5,360
    800034b4:	fef43423          	sd	a5,-24(s0)
    800034b8:	fe843703          	ld	a4,-24(s0)
    800034bc:	00017797          	auipc	a5,0x17
    800034c0:	bdc78793          	addi	a5,a5,-1060 # 8001a098 <pid_lock>
    800034c4:	faf764e3          	bltu	a4,a5,8000346c <wakeup+0x1a>
    800034c8:	0001                	nop
    800034ca:	0001                	nop
    800034cc:	70a2                	ld	ra,40(sp)
    800034ce:	7402                	ld	s0,32(sp)
    800034d0:	6145                	addi	sp,sp,48
    800034d2:	8082                	ret

00000000800034d4 <wakeup1>:
    800034d4:	1101                	addi	sp,sp,-32
    800034d6:	ec06                	sd	ra,24(sp)
    800034d8:	e822                	sd	s0,16(sp)
    800034da:	1000                	addi	s0,sp,32
    800034dc:	fea43423          	sd	a0,-24(s0)
    800034e0:	fe843783          	ld	a5,-24(s0)
    800034e4:	853e                	mv	a0,a5
    800034e6:	ffffe097          	auipc	ra,0xffffe
    800034ea:	e54080e7          	jalr	-428(ra) # 8000133a <holding>
    800034ee:	87aa                	mv	a5,a0
    800034f0:	eb89                	bnez	a5,80003502 <wakeup1+0x2e>
    800034f2:	00008517          	auipc	a0,0x8
    800034f6:	d4e50513          	addi	a0,a0,-690 # 8000b240 <etext+0x240>
    800034fa:	ffffd097          	auipc	ra,0xffffd
    800034fe:	758080e7          	jalr	1880(ra) # 80000c52 <panic>
    80003502:	fe843783          	ld	a5,-24(s0)
    80003506:	779c                	ld	a5,40(a5)
    80003508:	fe843703          	ld	a4,-24(s0)
    8000350c:	00f71d63          	bne	a4,a5,80003526 <wakeup1+0x52>
    80003510:	fe843783          	ld	a5,-24(s0)
    80003514:	4f9c                	lw	a5,24(a5)
    80003516:	873e                	mv	a4,a5
    80003518:	4785                	li	a5,1
    8000351a:	00f71663          	bne	a4,a5,80003526 <wakeup1+0x52>
    8000351e:	fe843783          	ld	a5,-24(s0)
    80003522:	4709                	li	a4,2
    80003524:	cf98                	sw	a4,24(a5)
    80003526:	0001                	nop
    80003528:	60e2                	ld	ra,24(sp)
    8000352a:	6442                	ld	s0,16(sp)
    8000352c:	6105                	addi	sp,sp,32
    8000352e:	8082                	ret

0000000080003530 <kill>:
    80003530:	7179                	addi	sp,sp,-48
    80003532:	f406                	sd	ra,40(sp)
    80003534:	f022                	sd	s0,32(sp)
    80003536:	1800                	addi	s0,sp,48
    80003538:	87aa                	mv	a5,a0
    8000353a:	fcf42e23          	sw	a5,-36(s0)
    8000353e:	00011797          	auipc	a5,0x11
    80003542:	15a78793          	addi	a5,a5,346 # 80014698 <proc>
    80003546:	fef43423          	sd	a5,-24(s0)
    8000354a:	a0ad                	j	800035b4 <kill+0x84>
    8000354c:	fe843783          	ld	a5,-24(s0)
    80003550:	853e                	mv	a0,a5
    80003552:	ffffe097          	auipc	ra,0xffffe
    80003556:	d2e080e7          	jalr	-722(ra) # 80001280 <acquire>
    8000355a:	fe843783          	ld	a5,-24(s0)
    8000355e:	5f98                	lw	a4,56(a5)
    80003560:	fdc42783          	lw	a5,-36(s0)
    80003564:	2781                	sext.w	a5,a5
    80003566:	02e79a63          	bne	a5,a4,8000359a <kill+0x6a>
    8000356a:	fe843783          	ld	a5,-24(s0)
    8000356e:	4705                	li	a4,1
    80003570:	db98                	sw	a4,48(a5)
    80003572:	fe843783          	ld	a5,-24(s0)
    80003576:	4f9c                	lw	a5,24(a5)
    80003578:	873e                	mv	a4,a5
    8000357a:	4785                	li	a5,1
    8000357c:	00f71663          	bne	a4,a5,80003588 <kill+0x58>
    80003580:	fe843783          	ld	a5,-24(s0)
    80003584:	4709                	li	a4,2
    80003586:	cf98                	sw	a4,24(a5)
    80003588:	fe843783          	ld	a5,-24(s0)
    8000358c:	853e                	mv	a0,a5
    8000358e:	ffffe097          	auipc	ra,0xffffe
    80003592:	d56080e7          	jalr	-682(ra) # 800012e4 <release>
    80003596:	4781                	li	a5,0
    80003598:	a03d                	j	800035c6 <kill+0x96>
    8000359a:	fe843783          	ld	a5,-24(s0)
    8000359e:	853e                	mv	a0,a5
    800035a0:	ffffe097          	auipc	ra,0xffffe
    800035a4:	d44080e7          	jalr	-700(ra) # 800012e4 <release>
    800035a8:	fe843783          	ld	a5,-24(s0)
    800035ac:	16878793          	addi	a5,a5,360
    800035b0:	fef43423          	sd	a5,-24(s0)
    800035b4:	fe843703          	ld	a4,-24(s0)
    800035b8:	00017797          	auipc	a5,0x17
    800035bc:	ae078793          	addi	a5,a5,-1312 # 8001a098 <pid_lock>
    800035c0:	f8f766e3          	bltu	a4,a5,8000354c <kill+0x1c>
    800035c4:	57fd                	li	a5,-1
    800035c6:	853e                	mv	a0,a5
    800035c8:	70a2                	ld	ra,40(sp)
    800035ca:	7402                	ld	s0,32(sp)
    800035cc:	6145                	addi	sp,sp,48
    800035ce:	8082                	ret

00000000800035d0 <either_copyout>:
    800035d0:	7139                	addi	sp,sp,-64
    800035d2:	fc06                	sd	ra,56(sp)
    800035d4:	f822                	sd	s0,48(sp)
    800035d6:	0080                	addi	s0,sp,64
    800035d8:	87aa                	mv	a5,a0
    800035da:	fcb43823          	sd	a1,-48(s0)
    800035de:	fcc43423          	sd	a2,-56(s0)
    800035e2:	fcd43023          	sd	a3,-64(s0)
    800035e6:	fcf42e23          	sw	a5,-36(s0)
    800035ea:	fffff097          	auipc	ra,0xfffff
    800035ee:	200080e7          	jalr	512(ra) # 800027ea <myproc>
    800035f2:	fea43423          	sd	a0,-24(s0)
    800035f6:	fdc42783          	lw	a5,-36(s0)
    800035fa:	2781                	sext.w	a5,a5
    800035fc:	c38d                	beqz	a5,8000361e <either_copyout+0x4e>
    800035fe:	fe843783          	ld	a5,-24(s0)
    80003602:	6bbc                	ld	a5,80(a5)
    80003604:	fc043683          	ld	a3,-64(s0)
    80003608:	fc843603          	ld	a2,-56(s0)
    8000360c:	fd043583          	ld	a1,-48(s0)
    80003610:	853e                	mv	a0,a5
    80003612:	fffff097          	auipc	ra,0xfffff
    80003616:	cc2080e7          	jalr	-830(ra) # 800022d4 <copyout>
    8000361a:	87aa                	mv	a5,a0
    8000361c:	a839                	j	8000363a <either_copyout+0x6a>
    8000361e:	fd043783          	ld	a5,-48(s0)
    80003622:	fc043703          	ld	a4,-64(s0)
    80003626:	2701                	sext.w	a4,a4
    80003628:	863a                	mv	a2,a4
    8000362a:	fc843583          	ld	a1,-56(s0)
    8000362e:	853e                	mv	a0,a5
    80003630:	ffffe097          	auipc	ra,0xffffe
    80003634:	f08080e7          	jalr	-248(ra) # 80001538 <memmove>
    80003638:	4781                	li	a5,0
    8000363a:	853e                	mv	a0,a5
    8000363c:	70e2                	ld	ra,56(sp)
    8000363e:	7442                	ld	s0,48(sp)
    80003640:	6121                	addi	sp,sp,64
    80003642:	8082                	ret

0000000080003644 <either_copyin>:
    80003644:	7139                	addi	sp,sp,-64
    80003646:	fc06                	sd	ra,56(sp)
    80003648:	f822                	sd	s0,48(sp)
    8000364a:	0080                	addi	s0,sp,64
    8000364c:	fca43c23          	sd	a0,-40(s0)
    80003650:	87ae                	mv	a5,a1
    80003652:	fcc43423          	sd	a2,-56(s0)
    80003656:	fcd43023          	sd	a3,-64(s0)
    8000365a:	fcf42a23          	sw	a5,-44(s0)
    8000365e:	fffff097          	auipc	ra,0xfffff
    80003662:	18c080e7          	jalr	396(ra) # 800027ea <myproc>
    80003666:	fea43423          	sd	a0,-24(s0)
    8000366a:	fd442783          	lw	a5,-44(s0)
    8000366e:	2781                	sext.w	a5,a5
    80003670:	c38d                	beqz	a5,80003692 <either_copyin+0x4e>
    80003672:	fe843783          	ld	a5,-24(s0)
    80003676:	6bbc                	ld	a5,80(a5)
    80003678:	fc043683          	ld	a3,-64(s0)
    8000367c:	fc843603          	ld	a2,-56(s0)
    80003680:	fd843583          	ld	a1,-40(s0)
    80003684:	853e                	mv	a0,a5
    80003686:	fffff097          	auipc	ra,0xfffff
    8000368a:	d1c080e7          	jalr	-740(ra) # 800023a2 <copyin>
    8000368e:	87aa                	mv	a5,a0
    80003690:	a839                	j	800036ae <either_copyin+0x6a>
    80003692:	fc843783          	ld	a5,-56(s0)
    80003696:	fc043703          	ld	a4,-64(s0)
    8000369a:	2701                	sext.w	a4,a4
    8000369c:	863a                	mv	a2,a4
    8000369e:	85be                	mv	a1,a5
    800036a0:	fd843503          	ld	a0,-40(s0)
    800036a4:	ffffe097          	auipc	ra,0xffffe
    800036a8:	e94080e7          	jalr	-364(ra) # 80001538 <memmove>
    800036ac:	4781                	li	a5,0
    800036ae:	853e                	mv	a0,a5
    800036b0:	70e2                	ld	ra,56(sp)
    800036b2:	7442                	ld	s0,48(sp)
    800036b4:	6121                	addi	sp,sp,64
    800036b6:	8082                	ret

00000000800036b8 <procdump>:
    800036b8:	1101                	addi	sp,sp,-32
    800036ba:	ec06                	sd	ra,24(sp)
    800036bc:	e822                	sd	s0,16(sp)
    800036be:	1000                	addi	s0,sp,32
    800036c0:	00008517          	auipc	a0,0x8
    800036c4:	b8850513          	addi	a0,a0,-1144 # 8000b248 <etext+0x248>
    800036c8:	ffffd097          	auipc	ra,0xffffd
    800036cc:	334080e7          	jalr	820(ra) # 800009fc <printf>
    800036d0:	00011797          	auipc	a5,0x11
    800036d4:	fc878793          	addi	a5,a5,-56 # 80014698 <proc>
    800036d8:	fef43423          	sd	a5,-24(s0)
    800036dc:	a04d                	j	8000377e <procdump+0xc6>
    800036de:	fe843783          	ld	a5,-24(s0)
    800036e2:	4f9c                	lw	a5,24(a5)
    800036e4:	c7d1                	beqz	a5,80003770 <procdump+0xb8>
    800036e6:	fe843783          	ld	a5,-24(s0)
    800036ea:	4f9c                	lw	a5,24(a5)
    800036ec:	873e                	mv	a4,a5
    800036ee:	4791                	li	a5,4
    800036f0:	02e7ee63          	bltu	a5,a4,8000372c <procdump+0x74>
    800036f4:	fe843783          	ld	a5,-24(s0)
    800036f8:	4f9c                	lw	a5,24(a5)
    800036fa:	00008717          	auipc	a4,0x8
    800036fe:	0b670713          	addi	a4,a4,182 # 8000b7b0 <states.0>
    80003702:	1782                	slli	a5,a5,0x20
    80003704:	9381                	srli	a5,a5,0x20
    80003706:	078e                	slli	a5,a5,0x3
    80003708:	97ba                	add	a5,a5,a4
    8000370a:	639c                	ld	a5,0(a5)
    8000370c:	c385                	beqz	a5,8000372c <procdump+0x74>
    8000370e:	fe843783          	ld	a5,-24(s0)
    80003712:	4f9c                	lw	a5,24(a5)
    80003714:	00008717          	auipc	a4,0x8
    80003718:	09c70713          	addi	a4,a4,156 # 8000b7b0 <states.0>
    8000371c:	1782                	slli	a5,a5,0x20
    8000371e:	9381                	srli	a5,a5,0x20
    80003720:	078e                	slli	a5,a5,0x3
    80003722:	97ba                	add	a5,a5,a4
    80003724:	639c                	ld	a5,0(a5)
    80003726:	fef43023          	sd	a5,-32(s0)
    8000372a:	a039                	j	80003738 <procdump+0x80>
    8000372c:	00008797          	auipc	a5,0x8
    80003730:	b2478793          	addi	a5,a5,-1244 # 8000b250 <etext+0x250>
    80003734:	fef43023          	sd	a5,-32(s0)
    80003738:	fe843783          	ld	a5,-24(s0)
    8000373c:	5f98                	lw	a4,56(a5)
    8000373e:	fe843783          	ld	a5,-24(s0)
    80003742:	15878793          	addi	a5,a5,344
    80003746:	86be                	mv	a3,a5
    80003748:	fe043603          	ld	a2,-32(s0)
    8000374c:	85ba                	mv	a1,a4
    8000374e:	00008517          	auipc	a0,0x8
    80003752:	b0a50513          	addi	a0,a0,-1270 # 8000b258 <etext+0x258>
    80003756:	ffffd097          	auipc	ra,0xffffd
    8000375a:	2a6080e7          	jalr	678(ra) # 800009fc <printf>
    8000375e:	00008517          	auipc	a0,0x8
    80003762:	aea50513          	addi	a0,a0,-1302 # 8000b248 <etext+0x248>
    80003766:	ffffd097          	auipc	ra,0xffffd
    8000376a:	296080e7          	jalr	662(ra) # 800009fc <printf>
    8000376e:	a011                	j	80003772 <procdump+0xba>
    80003770:	0001                	nop
    80003772:	fe843783          	ld	a5,-24(s0)
    80003776:	16878793          	addi	a5,a5,360
    8000377a:	fef43423          	sd	a5,-24(s0)
    8000377e:	fe843703          	ld	a4,-24(s0)
    80003782:	00017797          	auipc	a5,0x17
    80003786:	91678793          	addi	a5,a5,-1770 # 8001a098 <pid_lock>
    8000378a:	f4f76ae3          	bltu	a4,a5,800036de <procdump+0x26>
    8000378e:	0001                	nop
    80003790:	0001                	nop
    80003792:	60e2                	ld	ra,24(sp)
    80003794:	6442                	ld	s0,16(sp)
    80003796:	6105                	addi	sp,sp,32
    80003798:	8082                	ret

000000008000379a <swtch>:
    8000379a:	00153023          	sd	ra,0(a0)
    8000379e:	00253423          	sd	sp,8(a0)
    800037a2:	e900                	sd	s0,16(a0)
    800037a4:	ed04                	sd	s1,24(a0)
    800037a6:	03253023          	sd	s2,32(a0)
    800037aa:	03353423          	sd	s3,40(a0)
    800037ae:	03453823          	sd	s4,48(a0)
    800037b2:	03553c23          	sd	s5,56(a0)
    800037b6:	05653023          	sd	s6,64(a0)
    800037ba:	05753423          	sd	s7,72(a0)
    800037be:	05853823          	sd	s8,80(a0)
    800037c2:	05953c23          	sd	s9,88(a0)
    800037c6:	07a53023          	sd	s10,96(a0)
    800037ca:	07b53423          	sd	s11,104(a0)
    800037ce:	0005b083          	ld	ra,0(a1)
    800037d2:	0085b103          	ld	sp,8(a1)
    800037d6:	6980                	ld	s0,16(a1)
    800037d8:	6d84                	ld	s1,24(a1)
    800037da:	0205b903          	ld	s2,32(a1)
    800037de:	0285b983          	ld	s3,40(a1)
    800037e2:	0305ba03          	ld	s4,48(a1)
    800037e6:	0385ba83          	ld	s5,56(a1)
    800037ea:	0405bb03          	ld	s6,64(a1)
    800037ee:	0485bb83          	ld	s7,72(a1)
    800037f2:	0505bc03          	ld	s8,80(a1)
    800037f6:	0585bc83          	ld	s9,88(a1)
    800037fa:	0605bd03          	ld	s10,96(a1)
    800037fe:	0685bd83          	ld	s11,104(a1)
    80003802:	8082                	ret

0000000080003804 <r_sstatus>:
    80003804:	1101                	addi	sp,sp,-32
    80003806:	ec22                	sd	s0,24(sp)
    80003808:	1000                	addi	s0,sp,32
    8000380a:	100027f3          	csrr	a5,sstatus
    8000380e:	fef43423          	sd	a5,-24(s0)
    80003812:	fe843783          	ld	a5,-24(s0)
    80003816:	853e                	mv	a0,a5
    80003818:	6462                	ld	s0,24(sp)
    8000381a:	6105                	addi	sp,sp,32
    8000381c:	8082                	ret

000000008000381e <w_sstatus>:
    8000381e:	1101                	addi	sp,sp,-32
    80003820:	ec22                	sd	s0,24(sp)
    80003822:	1000                	addi	s0,sp,32
    80003824:	fea43423          	sd	a0,-24(s0)
    80003828:	fe843783          	ld	a5,-24(s0)
    8000382c:	10079073          	csrw	sstatus,a5
    80003830:	0001                	nop
    80003832:	6462                	ld	s0,24(sp)
    80003834:	6105                	addi	sp,sp,32
    80003836:	8082                	ret

0000000080003838 <r_sip>:
    80003838:	1101                	addi	sp,sp,-32
    8000383a:	ec22                	sd	s0,24(sp)
    8000383c:	1000                	addi	s0,sp,32
    8000383e:	144027f3          	csrr	a5,sip
    80003842:	fef43423          	sd	a5,-24(s0)
    80003846:	fe843783          	ld	a5,-24(s0)
    8000384a:	853e                	mv	a0,a5
    8000384c:	6462                	ld	s0,24(sp)
    8000384e:	6105                	addi	sp,sp,32
    80003850:	8082                	ret

0000000080003852 <w_sip>:
    80003852:	1101                	addi	sp,sp,-32
    80003854:	ec22                	sd	s0,24(sp)
    80003856:	1000                	addi	s0,sp,32
    80003858:	fea43423          	sd	a0,-24(s0)
    8000385c:	fe843783          	ld	a5,-24(s0)
    80003860:	14479073          	csrw	sip,a5
    80003864:	0001                	nop
    80003866:	6462                	ld	s0,24(sp)
    80003868:	6105                	addi	sp,sp,32
    8000386a:	8082                	ret

000000008000386c <w_sepc>:
    8000386c:	1101                	addi	sp,sp,-32
    8000386e:	ec22                	sd	s0,24(sp)
    80003870:	1000                	addi	s0,sp,32
    80003872:	fea43423          	sd	a0,-24(s0)
    80003876:	fe843783          	ld	a5,-24(s0)
    8000387a:	14179073          	csrw	sepc,a5
    8000387e:	0001                	nop
    80003880:	6462                	ld	s0,24(sp)
    80003882:	6105                	addi	sp,sp,32
    80003884:	8082                	ret

0000000080003886 <r_sepc>:
    80003886:	1101                	addi	sp,sp,-32
    80003888:	ec22                	sd	s0,24(sp)
    8000388a:	1000                	addi	s0,sp,32
    8000388c:	141027f3          	csrr	a5,sepc
    80003890:	fef43423          	sd	a5,-24(s0)
    80003894:	fe843783          	ld	a5,-24(s0)
    80003898:	853e                	mv	a0,a5
    8000389a:	6462                	ld	s0,24(sp)
    8000389c:	6105                	addi	sp,sp,32
    8000389e:	8082                	ret

00000000800038a0 <w_stvec>:
    800038a0:	1101                	addi	sp,sp,-32
    800038a2:	ec22                	sd	s0,24(sp)
    800038a4:	1000                	addi	s0,sp,32
    800038a6:	fea43423          	sd	a0,-24(s0)
    800038aa:	fe843783          	ld	a5,-24(s0)
    800038ae:	10579073          	csrw	stvec,a5
    800038b2:	0001                	nop
    800038b4:	6462                	ld	s0,24(sp)
    800038b6:	6105                	addi	sp,sp,32
    800038b8:	8082                	ret

00000000800038ba <r_satp>:
    800038ba:	1101                	addi	sp,sp,-32
    800038bc:	ec22                	sd	s0,24(sp)
    800038be:	1000                	addi	s0,sp,32
    800038c0:	180027f3          	csrr	a5,satp
    800038c4:	fef43423          	sd	a5,-24(s0)
    800038c8:	fe843783          	ld	a5,-24(s0)
    800038cc:	853e                	mv	a0,a5
    800038ce:	6462                	ld	s0,24(sp)
    800038d0:	6105                	addi	sp,sp,32
    800038d2:	8082                	ret

00000000800038d4 <r_scause>:
    800038d4:	1101                	addi	sp,sp,-32
    800038d6:	ec22                	sd	s0,24(sp)
    800038d8:	1000                	addi	s0,sp,32
    800038da:	142027f3          	csrr	a5,scause
    800038de:	fef43423          	sd	a5,-24(s0)
    800038e2:	fe843783          	ld	a5,-24(s0)
    800038e6:	853e                	mv	a0,a5
    800038e8:	6462                	ld	s0,24(sp)
    800038ea:	6105                	addi	sp,sp,32
    800038ec:	8082                	ret

00000000800038ee <r_stval>:
    800038ee:	1101                	addi	sp,sp,-32
    800038f0:	ec22                	sd	s0,24(sp)
    800038f2:	1000                	addi	s0,sp,32
    800038f4:	143027f3          	csrr	a5,stval
    800038f8:	fef43423          	sd	a5,-24(s0)
    800038fc:	fe843783          	ld	a5,-24(s0)
    80003900:	853e                	mv	a0,a5
    80003902:	6462                	ld	s0,24(sp)
    80003904:	6105                	addi	sp,sp,32
    80003906:	8082                	ret

0000000080003908 <intr_on>:
    80003908:	1141                	addi	sp,sp,-16
    8000390a:	e406                	sd	ra,8(sp)
    8000390c:	e022                	sd	s0,0(sp)
    8000390e:	0800                	addi	s0,sp,16
    80003910:	00000097          	auipc	ra,0x0
    80003914:	ef4080e7          	jalr	-268(ra) # 80003804 <r_sstatus>
    80003918:	87aa                	mv	a5,a0
    8000391a:	0027e793          	ori	a5,a5,2
    8000391e:	853e                	mv	a0,a5
    80003920:	00000097          	auipc	ra,0x0
    80003924:	efe080e7          	jalr	-258(ra) # 8000381e <w_sstatus>
    80003928:	0001                	nop
    8000392a:	60a2                	ld	ra,8(sp)
    8000392c:	6402                	ld	s0,0(sp)
    8000392e:	0141                	addi	sp,sp,16
    80003930:	8082                	ret

0000000080003932 <intr_off>:
    80003932:	1141                	addi	sp,sp,-16
    80003934:	e406                	sd	ra,8(sp)
    80003936:	e022                	sd	s0,0(sp)
    80003938:	0800                	addi	s0,sp,16
    8000393a:	00000097          	auipc	ra,0x0
    8000393e:	eca080e7          	jalr	-310(ra) # 80003804 <r_sstatus>
    80003942:	87aa                	mv	a5,a0
    80003944:	9bf5                	andi	a5,a5,-3
    80003946:	853e                	mv	a0,a5
    80003948:	00000097          	auipc	ra,0x0
    8000394c:	ed6080e7          	jalr	-298(ra) # 8000381e <w_sstatus>
    80003950:	0001                	nop
    80003952:	60a2                	ld	ra,8(sp)
    80003954:	6402                	ld	s0,0(sp)
    80003956:	0141                	addi	sp,sp,16
    80003958:	8082                	ret

000000008000395a <intr_get>:
    8000395a:	1101                	addi	sp,sp,-32
    8000395c:	ec06                	sd	ra,24(sp)
    8000395e:	e822                	sd	s0,16(sp)
    80003960:	1000                	addi	s0,sp,32
    80003962:	00000097          	auipc	ra,0x0
    80003966:	ea2080e7          	jalr	-350(ra) # 80003804 <r_sstatus>
    8000396a:	fea43423          	sd	a0,-24(s0)
    8000396e:	fe843783          	ld	a5,-24(s0)
    80003972:	8b89                	andi	a5,a5,2
    80003974:	00f037b3          	snez	a5,a5
    80003978:	0ff7f793          	andi	a5,a5,255
    8000397c:	2781                	sext.w	a5,a5
    8000397e:	853e                	mv	a0,a5
    80003980:	60e2                	ld	ra,24(sp)
    80003982:	6442                	ld	s0,16(sp)
    80003984:	6105                	addi	sp,sp,32
    80003986:	8082                	ret

0000000080003988 <r_tp>:
    80003988:	1101                	addi	sp,sp,-32
    8000398a:	ec22                	sd	s0,24(sp)
    8000398c:	1000                	addi	s0,sp,32
    8000398e:	8792                	mv	a5,tp
    80003990:	fef43423          	sd	a5,-24(s0)
    80003994:	fe843783          	ld	a5,-24(s0)
    80003998:	853e                	mv	a0,a5
    8000399a:	6462                	ld	s0,24(sp)
    8000399c:	6105                	addi	sp,sp,32
    8000399e:	8082                	ret

00000000800039a0 <trapinit>:
    800039a0:	1141                	addi	sp,sp,-16
    800039a2:	e406                	sd	ra,8(sp)
    800039a4:	e022                	sd	s0,0(sp)
    800039a6:	0800                	addi	s0,sp,16
    800039a8:	00008597          	auipc	a1,0x8
    800039ac:	8f058593          	addi	a1,a1,-1808 # 8000b298 <etext+0x298>
    800039b0:	00016517          	auipc	a0,0x16
    800039b4:	70050513          	addi	a0,a0,1792 # 8001a0b0 <tickslock>
    800039b8:	ffffe097          	auipc	ra,0xffffe
    800039bc:	898080e7          	jalr	-1896(ra) # 80001250 <initlock>
    800039c0:	0001                	nop
    800039c2:	60a2                	ld	ra,8(sp)
    800039c4:	6402                	ld	s0,0(sp)
    800039c6:	0141                	addi	sp,sp,16
    800039c8:	8082                	ret

00000000800039ca <trapinithart>:
    800039ca:	1141                	addi	sp,sp,-16
    800039cc:	e406                	sd	ra,8(sp)
    800039ce:	e022                	sd	s0,0(sp)
    800039d0:	0800                	addi	s0,sp,16
    800039d2:	00005797          	auipc	a5,0x5
    800039d6:	d7e78793          	addi	a5,a5,-642 # 80008750 <kernelvec>
    800039da:	853e                	mv	a0,a5
    800039dc:	00000097          	auipc	ra,0x0
    800039e0:	ec4080e7          	jalr	-316(ra) # 800038a0 <w_stvec>
    800039e4:	0001                	nop
    800039e6:	60a2                	ld	ra,8(sp)
    800039e8:	6402                	ld	s0,0(sp)
    800039ea:	0141                	addi	sp,sp,16
    800039ec:	8082                	ret

00000000800039ee <usertrap>:
    800039ee:	7179                	addi	sp,sp,-48
    800039f0:	f406                	sd	ra,40(sp)
    800039f2:	f022                	sd	s0,32(sp)
    800039f4:	ec26                	sd	s1,24(sp)
    800039f6:	1800                	addi	s0,sp,48
    800039f8:	fc042e23          	sw	zero,-36(s0)
    800039fc:	00000097          	auipc	ra,0x0
    80003a00:	e08080e7          	jalr	-504(ra) # 80003804 <r_sstatus>
    80003a04:	87aa                	mv	a5,a0
    80003a06:	1007f793          	andi	a5,a5,256
    80003a0a:	cb89                	beqz	a5,80003a1c <usertrap+0x2e>
    80003a0c:	00008517          	auipc	a0,0x8
    80003a10:	89450513          	addi	a0,a0,-1900 # 8000b2a0 <etext+0x2a0>
    80003a14:	ffffd097          	auipc	ra,0xffffd
    80003a18:	23e080e7          	jalr	574(ra) # 80000c52 <panic>
    80003a1c:	00005797          	auipc	a5,0x5
    80003a20:	d3478793          	addi	a5,a5,-716 # 80008750 <kernelvec>
    80003a24:	853e                	mv	a0,a5
    80003a26:	00000097          	auipc	ra,0x0
    80003a2a:	e7a080e7          	jalr	-390(ra) # 800038a0 <w_stvec>
    80003a2e:	fffff097          	auipc	ra,0xfffff
    80003a32:	dbc080e7          	jalr	-580(ra) # 800027ea <myproc>
    80003a36:	fca43823          	sd	a0,-48(s0)
    80003a3a:	fd043783          	ld	a5,-48(s0)
    80003a3e:	6fa4                	ld	s1,88(a5)
    80003a40:	00000097          	auipc	ra,0x0
    80003a44:	e46080e7          	jalr	-442(ra) # 80003886 <r_sepc>
    80003a48:	87aa                	mv	a5,a0
    80003a4a:	ec9c                	sd	a5,24(s1)
    80003a4c:	00000097          	auipc	ra,0x0
    80003a50:	e88080e7          	jalr	-376(ra) # 800038d4 <r_scause>
    80003a54:	872a                	mv	a4,a0
    80003a56:	47a1                	li	a5,8
    80003a58:	02f71d63          	bne	a4,a5,80003a92 <usertrap+0xa4>
    80003a5c:	fd043783          	ld	a5,-48(s0)
    80003a60:	5b9c                	lw	a5,48(a5)
    80003a62:	c791                	beqz	a5,80003a6e <usertrap+0x80>
    80003a64:	557d                	li	a0,-1
    80003a66:	fffff097          	auipc	ra,0xfffff
    80003a6a:	440080e7          	jalr	1088(ra) # 80002ea6 <exit>
    80003a6e:	fd043783          	ld	a5,-48(s0)
    80003a72:	6fbc                	ld	a5,88(a5)
    80003a74:	6f98                	ld	a4,24(a5)
    80003a76:	fd043783          	ld	a5,-48(s0)
    80003a7a:	6fbc                	ld	a5,88(a5)
    80003a7c:	0711                	addi	a4,a4,4
    80003a7e:	ef98                	sd	a4,24(a5)
    80003a80:	00000097          	auipc	ra,0x0
    80003a84:	e88080e7          	jalr	-376(ra) # 80003908 <intr_on>
    80003a88:	00000097          	auipc	ra,0x0
    80003a8c:	67e080e7          	jalr	1662(ra) # 80004106 <syscall>
    80003a90:	a0b5                	j	80003afc <usertrap+0x10e>
    80003a92:	00000097          	auipc	ra,0x0
    80003a96:	346080e7          	jalr	838(ra) # 80003dd8 <devintr>
    80003a9a:	87aa                	mv	a5,a0
    80003a9c:	fcf42e23          	sw	a5,-36(s0)
    80003aa0:	fdc42783          	lw	a5,-36(s0)
    80003aa4:	2781                	sext.w	a5,a5
    80003aa6:	ebb9                	bnez	a5,80003afc <usertrap+0x10e>
